
/home/e11io/projects/AraXL/tvm-apps/artifacts/bin/fdotproduct:	file format elf64-littleriscv

Disassembly of section .text:

0000000080000000 <_start>:
80000000: 00002197     	auipc	gp, 0x2
80000004: a6018193     	addi	gp, gp, -0x5a0
80000008: a009         	j	0x8000000a <reset_vector>

000000008000000a <reset_vector>:
8000000a: 4081         	li	ra, 0x0
8000000c: 4201         	li	tp, 0x0
8000000e: 4281         	li	t0, 0x0
80000010: 4301         	li	t1, 0x0
80000012: 4381         	li	t2, 0x0
80000014: 4401         	li	s0, 0x0
80000016: 4481         	li	s1, 0x0
80000018: 4501         	li	a0, 0x0
8000001a: 4581         	li	a1, 0x0
8000001c: 4601         	li	a2, 0x0
8000001e: 4681         	li	a3, 0x0
80000020: 4701         	li	a4, 0x0
80000022: 4781         	li	a5, 0x0
80000024: 4801         	li	a6, 0x0
80000026: 4881         	li	a7, 0x0
80000028: 4901         	li	s2, 0x0
8000002a: 4981         	li	s3, 0x0
8000002c: 4a01         	li	s4, 0x0
8000002e: 4501         	li	a0, 0x0
80000030: 4a81         	li	s5, 0x0
80000032: 4b01         	li	s6, 0x0
80000034: 4b81         	li	s7, 0x0
80000036: 4c01         	li	s8, 0x0
80000038: 4c81         	li	s9, 0x0
8000003a: 4d01         	li	s10, 0x0
8000003c: 4d81         	li	s11, 0x0
8000003e: 4e01         	li	t3, 0x0
80000040: 4e81         	li	t4, 0x0
80000042: 4f01         	li	t5, 0x0
80000044: 4f81         	li	t6, 0x0
80000046: 50000297     	auipc	t0, 0x50000
8000004a: fca28293     	addi	t0, t0, -0x36
8000004e: 0002b103     	ld	sp, 0x0(t0)
80000052: 52fd         	li	t0, -0x1
80000054: 00b2d293     	srli	t0, t0, 0xb
80000058: 3b029073     	csrw	pmpaddr0, t0
8000005c: 42fd         	li	t0, 0x1f
8000005e: 3a029073     	csrw	pmpcfg0, t0
80000062: 30405073     	csrwi	mie, 0x0
80000066: 00000297     	auipc	t0, 0x0
8000006a: 07228293     	addi	t0, t0, 0x72
8000006e: 30529073     	csrw	mtvec, t0
80000072: 30205073     	csrwi	medeleg, 0x0
80000076: 30305073     	csrwi	mideleg, 0x0
8000007a: 80000297     	auipc	t0, 0x80000
8000007e: f8628293     	addi	t0, t0, -0x7a
80000082: 00028963     	beqz	t0, 0x80000094 <reset_vector+0x8a>
80000086: 10529073     	csrw	stvec, t0
8000008a: 62ad         	lui	t0, 0xb
8000008c: 1092829b     	addiw	t0, t0, 0x109
80000090: 30229073     	csrw	medeleg, t0
80000094: 30005073     	csrwi	mstatus, 0x0
80000098: 6289         	lui	t0, 0x2
8000009a: 3002a073     	csrs	mstatus, t0
8000009e: 00305073     	csrwi	fcsr, 0x0
800000a2: 20000293     	li	t0, 0x200
800000a6: 3002a073     	csrs	mstatus, t0
800000aa: 3060e073     	csrsi	mcounteren, 0x1
800000ae: 1060e073     	csrsi	scounteren, 0x1
800000b2: 80000297     	auipc	t0, 0x80000
800000b6: f4e28293     	addi	t0, t0, -0xb2
800000ba: 00028363     	beqz	t0, 0x800000c0 <reset_vector+0xb6>
800000be: 9282         	jalr	t0
800000c0: 00000097     	auipc	ra, 0x0
800000c4: 03008093     	addi	ra, ra, 0x30
800000c8: 00001297     	auipc	t0, 0x1
800000cc: cbe28293     	addi	t0, t0, -0x342
800000d0: 34129073     	csrw	mepc, t0
800000d4: 30200073     	mret

00000000800000d8 <trap_vector>:
800000d8: 80000f17     	auipc	t5, 0x80000
800000dc: f28f0f13     	addi	t5, t5, -0xd8
800000e0: 000f0363     	beqz	t5, 0x800000e6 <trap_vector+0xe>
800000e4: 8f02         	jr	t5
800000e6: 34202573     	csrr	a0, mcause
800000ea: 0160006f     	j	0x80000100 <_fail>
800000ee: 0001         	nop

00000000800000f0 <_eoc>:
800000f0: 50000297     	auipc	t0, 0x50000
800000f4: f1028293     	addi	t0, t0, -0xf0
800000f8: 00a2b023     	sd	a0, 0x0(t0)
800000fc: ff5ff06f     	j	0x800000f0 <_eoc>

0000000080000100 <_fail>:
80000100: 50000297     	auipc	t0, 0x50000
80000104: f0028293     	addi	t0, t0, -0x100
80000108: 00a2b023     	sd	a0, 0x0(t0)
8000010c: fe5ff06f     	j	0x800000f0 <_eoc>

0000000080000110 <__tvm_ffi_fdotproduct>:
80000110: ff010113     	addi	sp, sp, -0x10
80000114: 00113423     	sd	ra, 0x8(sp)
80000118: 0006061b     	sext.w	a2, a2
8000011c: 00300513     	li	a0, 0x3
80000120: 32a61c63     	bne	a2, a0, 0x80000458 <__tvm_ffi_fdotproduct+0x348>
80000124: 38058463     	beqz	a1, 0x800004ac <__tvm_ffi_fdotproduct+0x39c>
80000128: 0005a683     	lw	a3, 0x0(a1)
8000012c: 03f00513     	li	a0, 0x3f
80000130: 00d54e63     	blt	a0, a3, 0x8000014c <__tvm_ffi_fdotproduct+0x3c>
80000134: 00700613     	li	a2, 0x7
80000138: 22d66263     	bltu	a2, a3, 0x8000035c <__tvm_ffi_fdotproduct+0x24c>
8000013c: 09100613     	li	a2, 0x91
80000140: 00d65633     	srl	a2, a2, a3
80000144: 00167613     	andi	a2, a2, 0x1
80000148: 20060a63     	beqz	a2, 0x8000035c <__tvm_ffi_fdotproduct+0x24c>
8000014c: 0105a603     	lw	a2, 0x10(a1)
80000150: 0085b783     	ld	a5, 0x8(a1)
80000154: 00c54e63     	blt	a0, a2, 0x80000170 <__tvm_ffi_fdotproduct+0x60>
80000158: 00700513     	li	a0, 0x7
8000015c: 24c56a63     	bltu	a0, a2, 0x800003b0 <__tvm_ffi_fdotproduct+0x2a0>
80000160: 09100513     	li	a0, 0x91
80000164: 00c55533     	srl	a0, a0, a2
80000168: 00157513     	andi	a0, a0, 0x1
8000016c: 24050263     	beqz	a0, 0x800003b0 <__tvm_ffi_fdotproduct+0x2a0>
80000170: 0205a503     	lw	a0, 0x20(a1)
80000174: 0185b703     	ld	a4, 0x18(a1)
80000178: 03f00813     	li	a6, 0x3f
8000017c: 00a84e63     	blt	a6, a0, 0x80000198 <__tvm_ffi_fdotproduct+0x88>
80000180: 00700813     	li	a6, 0x7
80000184: 28a86063     	bltu	a6, a0, 0x80000404 <__tvm_ffi_fdotproduct+0x2f4>
80000188: 09100813     	li	a6, 0x91
8000018c: 00a85833     	srl	a6, a6, a0
80000190: 00187813     	andi	a6, a6, 0x1
80000194: 26080863     	beqz	a6, 0x80000404 <__tvm_ffi_fdotproduct+0x2f4>
80000198: 36078063     	beqz	a5, 0x800004f8 <__tvm_ffi_fdotproduct+0x3e8>
8000019c: fba68693     	addi	a3, a3, -0x46
800001a0: 00d036b3     	snez	a3, a3
800001a4: fff68693     	addi	a3, a3, -0x1
800001a8: 0186f693     	andi	a3, a3, 0x18
800001ac: 00d786b3     	add	a3, a5, a3
800001b0: 0106a803     	lw	a6, 0x10(a3)
800001b4: 00100793     	li	a5, 0x1
800001b8: 38f81a63     	bne	a6, a5, 0x8000054c <__tvm_ffi_fdotproduct+0x43c>
800001bc: 0166d803     	lhu	a6, 0x16(a3)
800001c0: 3ef81063     	bne	a6, a5, 0x800005a0 <__tvm_ffi_fdotproduct+0x490>
800001c4: 0156c783     	lbu	a5, 0x15(a3)
800001c8: 02000813     	li	a6, 0x20
800001cc: 3d079a63     	bne	a5, a6, 0x800005a0 <__tvm_ffi_fdotproduct+0x490>
800001d0: 0146c783     	lbu	a5, 0x14(a3)
800001d4: 00200813     	li	a6, 0x2
800001d8: 3d079463     	bne	a5, a6, 0x800005a0 <__tvm_ffi_fdotproduct+0x490>
800001dc: 0086a783     	lw	a5, 0x8(a3)
800001e0: 00100813     	li	a6, 0x1
800001e4: 41079863     	bne	a5, a6, 0x800005f4 <__tvm_ffi_fdotproduct+0x4e4>
800001e8: 46070063     	beqz	a4, 0x80000648 <__tvm_ffi_fdotproduct+0x538>
800001ec: fba60613     	addi	a2, a2, -0x46
800001f0: 00c03633     	snez	a2, a2
800001f4: fff60613     	addi	a2, a2, -0x1
800001f8: 01867613     	andi	a2, a2, 0x18
800001fc: 00c70733     	add	a4, a4, a2
80000200: 01072783     	lw	a5, 0x10(a4)
80000204: 00100613     	li	a2, 0x1
80000208: 48c79a63     	bne	a5, a2, 0x8000069c <__tvm_ffi_fdotproduct+0x58c>
8000020c: 01675783     	lhu	a5, 0x16(a4)
80000210: 4cc79063     	bne	a5, a2, 0x800006d0 <__tvm_ffi_fdotproduct+0x5c0>
80000214: 01574603     	lbu	a2, 0x15(a4)
80000218: 02000793     	li	a5, 0x20
8000021c: 4af61a63     	bne	a2, a5, 0x800006d0 <__tvm_ffi_fdotproduct+0x5c0>
80000220: 01474603     	lbu	a2, 0x14(a4)
80000224: 00200793     	li	a5, 0x2
80000228: 4af61463     	bne	a2, a5, 0x800006d0 <__tvm_ffi_fdotproduct+0x5c0>
8000022c: 00872603     	lw	a2, 0x8(a4)
80000230: 00100793     	li	a5, 0x1
80000234: 4ef61863     	bne	a2, a5, 0x80000724 <__tvm_ffi_fdotproduct+0x614>
80000238: 0285b783     	ld	a5, 0x28(a1)
8000023c: 52078e63     	beqz	a5, 0x80000778 <__tvm_ffi_fdotproduct+0x668>
80000240: fba50513     	addi	a0, a0, -0x46
80000244: 00a03533     	snez	a0, a0
80000248: fff50513     	addi	a0, a0, -0x1
8000024c: 01857513     	andi	a0, a0, 0x18
80000250: 00a787b3     	add	a5, a5, a0
80000254: 0107a583     	lw	a1, 0x10(a5)
80000258: 00100513     	li	a0, 0x1
8000025c: 56a59863     	bne	a1, a0, 0x800007cc <__tvm_ffi_fdotproduct+0x6bc>
80000260: 0167d583     	lhu	a1, 0x16(a5)
80000264: 5aa59e63     	bne	a1, a0, 0x80000820 <__tvm_ffi_fdotproduct+0x710>
80000268: 0157c503     	lbu	a0, 0x15(a5)
8000026c: 02000593     	li	a1, 0x20
80000270: 5ab51863     	bne	a0, a1, 0x80000820 <__tvm_ffi_fdotproduct+0x710>
80000274: 0147c503     	lbu	a0, 0x14(a5)
80000278: 00200593     	li	a1, 0x2
8000027c: 5ab51263     	bne	a0, a1, 0x80000820 <__tvm_ffi_fdotproduct+0x710>
80000280: 0087a503     	lw	a0, 0x8(a5)
80000284: 00100593     	li	a1, 0x1
80000288: 5eb51663     	bne	a0, a1, 0x80000874 <__tvm_ffi_fdotproduct+0x764>
8000028c: 0006b583     	ld	a1, 0x0(a3)
80000290: 00c6a383     	lw	t2, 0xc(a3)
80000294: 0186b303     	ld	t1, 0x18(a3)
80000298: 0206be83     	ld	t4, 0x20(a3)
8000029c: 00073603     	ld	a2, 0x0(a4)
800002a0: 01873283     	ld	t0, 0x18(a4)
800002a4: 02073e03     	ld	t3, 0x20(a4)
800002a8: 0007b503     	ld	a0, 0x0(a5)
800002ac: 0187b803     	ld	a6, 0x18(a5)
800002b0: fff00893     	li	a7, -0x1
800002b4: 0208d893     	srli	a7, a7, 0x20
800002b8: 000e8a63     	beqz	t4, 0x800002cc <__tvm_ffi_fdotproduct+0x1bc>
800002bc: 000ebe83     	ld	t4, 0x0(t4)
800002c0: 011efeb3     	and	t4, t4, a7
800002c4: 00100f13     	li	t5, 0x1
800002c8: 61ee9063     	bne	t4, t5, 0x800008c8 <__tvm_ffi_fdotproduct+0x7b8>
800002cc: 62058863     	beqz	a1, 0x800008fc <__tvm_ffi_fdotproduct+0x7ec>
800002d0: 000e0a63     	beqz	t3, 0x800002e4 <__tvm_ffi_fdotproduct+0x1d4>
800002d4: 000e3e03     	ld	t3, 0x0(t3)
800002d8: 011e7e33     	and	t3, t3, a7
800002dc: 00100e93     	li	t4, 0x1
800002e0: 67de1863     	bne	t3, t4, 0x80000950 <__tvm_ffi_fdotproduct+0x840>
800002e4: 00c72e03     	lw	t3, 0xc(a4)
800002e8: 6bc39c63     	bne	t2, t3, 0x800009a0 <__tvm_ffi_fdotproduct+0x890>
800002ec: 70060463     	beqz	a2, 0x800009f4 <__tvm_ffi_fdotproduct+0x8e4>
800002f0: 00c7ae03     	lw	t3, 0xc(a5)
800002f4: 75c39a63     	bne	t2, t3, 0x80000a48 <__tvm_ffi_fdotproduct+0x938>
800002f8: 7a050263     	beqz	a0, 0x80000a9c <__tvm_ffi_fdotproduct+0x98c>
800002fc: 00033303     	ld	t1, 0x0(t1)
80000300: 01137333     	and	t1, t1, a7
80000304: 04000393     	li	t2, 0x40
80000308: 7e731463     	bne	t1, t2, 0x80000af0 <__tvm_ffi_fdotproduct+0x9e0>
8000030c: 0286b683     	ld	a3, 0x28(a3)
80000310: 02069ae3     	bnez	a3, 0x80000b44 <__tvm_ffi_fdotproduct+0xa34>
80000314: 0002b683     	ld	a3, 0x0(t0)
80000318: 0116f6b3     	and	a3, a3, a7
8000031c: 04000293     	li	t0, 0x40
80000320: 06569ae3     	bne	a3, t0, 0x80000b94 <__tvm_ffi_fdotproduct+0xa84>
80000324: 02873683     	ld	a3, 0x28(a4)
80000328: 0c0690e3     	bnez	a3, 0x80000be8 <__tvm_ffi_fdotproduct+0xad8>
8000032c: 00083683     	ld	a3, 0x0(a6)
80000330: 0116f6b3     	and	a3, a3, a7
80000334: 00100713     	li	a4, 0x1
80000338: 10e692e3     	bne	a3, a4, 0x80000c3c <__tvm_ffi_fdotproduct+0xb2c>
8000033c: 0287b683     	ld	a3, 0x28(a5)
80000340: 140698e3     	bnez	a3, 0x80000c90 <__tvm_ffi_fdotproduct+0xb80>
80000344: 00001097     	auipc	ra, 0x1
80000348: a04080e7     	jalr	-0x5fc(ra) <fdotproduct_compute_>
8000034c: 00000513     	li	a0, 0x0
80000350: 00813083     	ld	ra, 0x8(sp)
80000354: 01010113     	addi	sp, sp, 0x10
80000358: 00008067     	ret
8000035c: 00001517     	auipc	a0, 0x1
80000360: 00001597     	auipc	a1, 0x1
80000364: 00001697     	auipc	a3, 0x1
80000368: 00001717     	auipc	a4, 0x1
8000036c: 00001797     	auipc	a5, 0x1
80000370: 00001817     	auipc	a6, 0x1
80000374: 00001897     	auipc	a7, 0x1
80000378: b0450513     	addi	a0, a0, -0x4fc
8000037c: ba458613     	addi	a2, a1, -0x45c
80000380: bbe68693     	addi	a3, a3, -0x442
80000384: b1970713     	addi	a4, a4, -0x4e7
80000388: b2878793     	addi	a5, a5, -0x4d8
8000038c: bb480813     	addi	a6, a6, -0x44c
80000390: bbf88893     	addi	a7, a7, -0x441
80000394: 00600593     	li	a1, 0x6
80000398: 00001097     	auipc	ra, 0x1
8000039c: 94c080e7     	jalr	-0x6b4(ra) <__tvm_set_raised_6>
800003a0: fff00513     	li	a0, -0x1
800003a4: 00813083     	ld	ra, 0x8(sp)
800003a8: 01010113     	addi	sp, sp, 0x10
800003ac: 00008067     	ret
800003b0: 00001517     	auipc	a0, 0x1
800003b4: 00001597     	auipc	a1, 0x1
800003b8: 00001697     	auipc	a3, 0x1
800003bc: 00001717     	auipc	a4, 0x1
800003c0: 00001797     	auipc	a5, 0x1
800003c4: 00001817     	auipc	a6, 0x1
800003c8: 00001897     	auipc	a7, 0x1
800003cc: ab050513     	addi	a0, a0, -0x550
800003d0: b5058613     	addi	a2, a1, -0x4b0
800003d4: b8268693     	addi	a3, a3, -0x47e
800003d8: ac570713     	addi	a4, a4, -0x53b
800003dc: ad478793     	addi	a5, a5, -0x52c
800003e0: b6080813     	addi	a6, a6, -0x4a0
800003e4: b6b88893     	addi	a7, a7, -0x495
800003e8: 00600593     	li	a1, 0x6
800003ec: 00001097     	auipc	ra, 0x1
800003f0: 8f8080e7     	jalr	-0x708(ra) <__tvm_set_raised_6>
800003f4: fff00513     	li	a0, -0x1
800003f8: 00813083     	ld	ra, 0x8(sp)
800003fc: 01010113     	addi	sp, sp, 0x10
80000400: 00008067     	ret
80000404: 00001517     	auipc	a0, 0x1
80000408: 00001597     	auipc	a1, 0x1
8000040c: 00001697     	auipc	a3, 0x1
80000410: 00001717     	auipc	a4, 0x1
80000414: 00001797     	auipc	a5, 0x1
80000418: 00001817     	auipc	a6, 0x1
8000041c: 00001897     	auipc	a7, 0x1
80000420: a5c50513     	addi	a0, a0, -0x5a4
80000424: afc58613     	addi	a2, a1, -0x504
80000428: b3068693     	addi	a3, a3, -0x4d0
8000042c: a7170713     	addi	a4, a4, -0x58f
80000430: a8078793     	addi	a5, a5, -0x580
80000434: b0c80813     	addi	a6, a6, -0x4f4
80000438: b1788893     	addi	a7, a7, -0x4e9
8000043c: 00600593     	li	a1, 0x6
80000440: 00001097     	auipc	ra, 0x1
80000444: 8a4080e7     	jalr	-0x75c(ra) <__tvm_set_raised_6>
80000448: fff00513     	li	a0, -0x1
8000044c: 00813083     	ld	ra, 0x8(sp)
80000450: 01010113     	addi	sp, sp, 0x10
80000454: 00008067     	ret
80000458: 00001517     	auipc	a0, 0x1
8000045c: 00001597     	auipc	a1, 0x1
80000460: 00001697     	auipc	a3, 0x1
80000464: 00001717     	auipc	a4, 0x1
80000468: 00001797     	auipc	a5, 0x1
8000046c: 00001817     	auipc	a6, 0x1
80000470: 00001897     	auipc	a7, 0x1
80000474: a0850513     	addi	a0, a0, -0x5f8
80000478: a0e58613     	addi	a2, a1, -0x5f2
8000047c: a1468693     	addi	a3, a3, -0x5ec
80000480: a1270713     	addi	a4, a4, -0x5ee
80000484: a1978793     	addi	a5, a5, -0x5e7
80000488: a2880813     	addi	a6, a6, -0x5d8
8000048c: a7d88893     	addi	a7, a7, -0x583
80000490: 00600593     	li	a1, 0x6
80000494: 00001097     	auipc	ra, 0x1
80000498: 850080e7     	jalr	-0x7b0(ra) <__tvm_set_raised_6>
8000049c: fff00513     	li	a0, -0x1
800004a0: 00813083     	ld	ra, 0x8(sp)
800004a4: 01010113     	addi	sp, sp, 0x10
800004a8: 00008067     	ret
800004ac: 00001517     	auipc	a0, 0x1
800004b0: 00001597     	auipc	a1, 0x1
800004b4: 00001697     	auipc	a3, 0x1
800004b8: 00001717     	auipc	a4, 0x1
800004bc: 00001797     	auipc	a5, 0x1
800004c0: 9b450513     	addi	a0, a0, -0x64c
800004c4: a3f58613     	addi	a2, a1, -0x5c1
800004c8: 9cd68693     	addi	a3, a3, -0x633
800004cc: 9dc70713     	addi	a4, a4, -0x624
800004d0: a3178793     	addi	a5, a5, -0x5cf
800004d4: 00400593     	li	a1, 0x4
800004d8: 00000813     	li	a6, 0x0
800004dc: 00000893     	li	a7, 0x0
800004e0: 00001097     	auipc	ra, 0x1
800004e4: 804080e7     	jalr	-0x7fc(ra) <__tvm_set_raised_6>
800004e8: fff00513     	li	a0, -0x1
800004ec: 00813083     	ld	ra, 0x8(sp)
800004f0: 01010113     	addi	sp, sp, 0x10
800004f4: 00008067     	ret
800004f8: 00001517     	auipc	a0, 0x1
800004fc: 00001597     	auipc	a1, 0x1
80000500: 00001697     	auipc	a3, 0x1
80000504: 00001717     	auipc	a4, 0x1
80000508: 00001797     	auipc	a5, 0x1
8000050c: 00001817     	auipc	a6, 0x1
80000510: 00001897     	auipc	a7, 0x1
80000514: 96850513     	addi	a0, a0, -0x698
80000518: a0858613     	addi	a2, a1, -0x5f8
8000051c: a2268693     	addi	a3, a3, -0x5de
80000520: 97d70713     	addi	a4, a4, -0x683
80000524: 98c78793     	addi	a5, a5, -0x674
80000528: a1880813     	addi	a6, a6, -0x5e8
8000052c: a2388893     	addi	a7, a7, -0x5dd
80000530: 00600593     	li	a1, 0x6
80000534: 00000097     	auipc	ra, 0x0
80000538: 7b0080e7     	jalr	0x7b0(ra) <__tvm_set_raised_6>
8000053c: fff00513     	li	a0, -0x1
80000540: 00813083     	ld	ra, 0x8(sp)
80000544: 01010113     	addi	sp, sp, 0x10
80000548: 00008067     	ret
8000054c: 00001517     	auipc	a0, 0x1
80000550: 00001597     	auipc	a1, 0x1
80000554: 00001697     	auipc	a3, 0x1
80000558: 00001717     	auipc	a4, 0x1
8000055c: 00001797     	auipc	a5, 0x1
80000560: 00001817     	auipc	a6, 0x1
80000564: 00001897     	auipc	a7, 0x1
80000568: 9f250513     	addi	a0, a0, -0x60e
8000056c: 9f958613     	addi	a2, a1, -0x607
80000570: a0168693     	addi	a3, a3, -0x5ff
80000574: 9ff70713     	addi	a4, a4, -0x601
80000578: 9c678793     	addi	a5, a5, -0x63a
8000057c: 9c480813     	addi	a6, a6, -0x63c
80000580: 9d688893     	addi	a7, a7, -0x62a
80000584: 00800593     	li	a1, 0x8
80000588: 00000097     	auipc	ra, 0x0
8000058c: 780080e7     	jalr	0x780(ra) <__tvm_set_raised_12>
80000590: fff00513     	li	a0, -0x1
80000594: 00813083     	ld	ra, 0x8(sp)
80000598: 01010113     	addi	sp, sp, 0x10
8000059c: 00008067     	ret
800005a0: 00001517     	auipc	a0, 0x1
800005a4: 00001597     	auipc	a1, 0x1
800005a8: 00001697     	auipc	a3, 0x1
800005ac: 00001717     	auipc	a4, 0x1
800005b0: 00001797     	auipc	a5, 0x1
800005b4: 00001817     	auipc	a6, 0x1
800005b8: 00001897     	auipc	a7, 0x1
800005bc: 8c050513     	addi	a0, a0, -0x740
800005c0: 9a558613     	addi	a2, a1, -0x65b
800005c4: 9ad68693     	addi	a3, a3, -0x653
800005c8: 9bf70713     	addi	a4, a4, -0x641
800005cc: 97278793     	addi	a5, a5, -0x68e
800005d0: 97080813     	addi	a6, a6, -0x690
800005d4: 9c888893     	addi	a7, a7, -0x638
800005d8: 00800593     	li	a1, 0x8
800005dc: 00000097     	auipc	ra, 0x0
800005e0: 72c080e7     	jalr	0x72c(ra) <__tvm_set_raised_12>
800005e4: fff00513     	li	a0, -0x1
800005e8: 00813083     	ld	ra, 0x8(sp)
800005ec: 01010113     	addi	sp, sp, 0x10
800005f0: 00008067     	ret
800005f4: 00001517     	auipc	a0, 0x1
800005f8: 00001597     	auipc	a1, 0x1
800005fc: 00001697     	auipc	a3, 0x1
80000600: 00001717     	auipc	a4, 0x1
80000604: 00001797     	auipc	a5, 0x1
80000608: 00001817     	auipc	a6, 0x1
8000060c: 00001897     	auipc	a7, 0x1
80000610: 94a50513     	addi	a0, a0, -0x6b6
80000614: 95158613     	addi	a2, a1, -0x6af
80000618: 95968693     	addi	a3, a3, -0x6a7
8000061c: 98870713     	addi	a4, a4, -0x678
80000620: 91e78793     	addi	a5, a5, -0x6e2
80000624: 91c80813     	addi	a6, a6, -0x6e4
80000628: 99788893     	addi	a7, a7, -0x669
8000062c: 00800593     	li	a1, 0x8
80000630: 00000097     	auipc	ra, 0x0
80000634: 6d8080e7     	jalr	0x6d8(ra) <__tvm_set_raised_12>
80000638: fff00513     	li	a0, -0x1
8000063c: 00813083     	ld	ra, 0x8(sp)
80000640: 01010113     	addi	sp, sp, 0x10
80000644: 00008067     	ret
80000648: 00001517     	auipc	a0, 0x1
8000064c: 00001597     	auipc	a1, 0x1
80000650: 00001697     	auipc	a3, 0x1
80000654: 00001717     	auipc	a4, 0x1
80000658: 00001797     	auipc	a5, 0x1
8000065c: 00001817     	auipc	a6, 0x1
80000660: 00001897     	auipc	a7, 0x1
80000664: 81850513     	addi	a0, a0, -0x7e8
80000668: 8b858613     	addi	a2, a1, -0x748
8000066c: 8ea68693     	addi	a3, a3, -0x716
80000670: 82d70713     	addi	a4, a4, -0x7d3
80000674: 83c78793     	addi	a5, a5, -0x7c4
80000678: 8c880813     	addi	a6, a6, -0x738
8000067c: 8d388893     	addi	a7, a7, -0x72d
80000680: 00600593     	li	a1, 0x6
80000684: 00000097     	auipc	ra, 0x0
80000688: 660080e7     	jalr	0x660(ra) <__tvm_set_raised_6>
8000068c: fff00513     	li	a0, -0x1
80000690: 00813083     	ld	ra, 0x8(sp)
80000694: 01010113     	addi	sp, sp, 0x10
80000698: 00008067     	ret
8000069c: 00001517     	auipc	a0, 0x1
800006a0: 00001597     	auipc	a1, 0x1
800006a4: 00001697     	auipc	a3, 0x1
800006a8: 00001717     	auipc	a4, 0x1
800006ac: 00001797     	auipc	a5, 0x1
800006b0: 00001897     	auipc	a7, 0x1
800006b4: 8a250513     	addi	a0, a0, -0x75e
800006b8: 8a958613     	addi	a2, a1, -0x757
800006bc: 90368693     	addi	a3, a3, -0x6fd
800006c0: 8af70713     	addi	a4, a4, -0x751
800006c4: 87878813     	addi	a6, a5, -0x788
800006c8: 88a88793     	addi	a5, a7, -0x776
800006cc: 4a80006f     	j	0x80000b74 <__tvm_ffi_fdotproduct+0xa64>
800006d0: 00000517     	auipc	a0, 0x0
800006d4: 00001597     	auipc	a1, 0x1
800006d8: 00001697     	auipc	a3, 0x1
800006dc: 00001717     	auipc	a4, 0x1
800006e0: 00001797     	auipc	a5, 0x1
800006e4: 00001817     	auipc	a6, 0x1
800006e8: 00001897     	auipc	a7, 0x1
800006ec: 79050513     	addi	a0, a0, 0x790
800006f0: 87558613     	addi	a2, a1, -0x78b
800006f4: 8cf68693     	addi	a3, a3, -0x731
800006f8: 88f70713     	addi	a4, a4, -0x771
800006fc: 85a78793     	addi	a5, a5, -0x7a6
80000700: 84080813     	addi	a6, a6, -0x7c0
80000704: 89888893     	addi	a7, a7, -0x768
80000708: 00800593     	li	a1, 0x8
8000070c: 00000097     	auipc	ra, 0x0
80000710: 5fc080e7     	jalr	0x5fc(ra) <__tvm_set_raised_12>
80000714: fff00513     	li	a0, -0x1
80000718: 00813083     	ld	ra, 0x8(sp)
8000071c: 01010113     	addi	sp, sp, 0x10
80000720: 00008067     	ret
80000724: 00001517     	auipc	a0, 0x1
80000728: 00001597     	auipc	a1, 0x1
8000072c: 00001697     	auipc	a3, 0x1
80000730: 00001717     	auipc	a4, 0x1
80000734: 00001797     	auipc	a5, 0x1
80000738: 00000817     	auipc	a6, 0x0
8000073c: 00001897     	auipc	a7, 0x1
80000740: 81a50513     	addi	a0, a0, -0x7e6
80000744: 82158613     	addi	a2, a1, -0x7df
80000748: 87b68693     	addi	a3, a3, -0x785
8000074c: 85870713     	addi	a4, a4, -0x7a8
80000750: 80678793     	addi	a5, a5, -0x7fa
80000754: 7ec80813     	addi	a6, a6, 0x7ec
80000758: 86788893     	addi	a7, a7, -0x799
8000075c: 00800593     	li	a1, 0x8
80000760: 00000097     	auipc	ra, 0x0
80000764: 5a8080e7     	jalr	0x5a8(ra) <__tvm_set_raised_12>
80000768: fff00513     	li	a0, -0x1
8000076c: 00813083     	ld	ra, 0x8(sp)
80000770: 01010113     	addi	sp, sp, 0x10
80000774: 00008067     	ret
80000778: 00000517     	auipc	a0, 0x0
8000077c: 00000597     	auipc	a1, 0x0
80000780: 00000697     	auipc	a3, 0x0
80000784: 00000717     	auipc	a4, 0x0
80000788: 00000797     	auipc	a5, 0x0
8000078c: 00000817     	auipc	a6, 0x0
80000790: 00000897     	auipc	a7, 0x0
80000794: 6e850513     	addi	a0, a0, 0x6e8
80000798: 78858613     	addi	a2, a1, 0x788
8000079c: 7bc68693     	addi	a3, a3, 0x7bc
800007a0: 6fd70713     	addi	a4, a4, 0x6fd
800007a4: 70c78793     	addi	a5, a5, 0x70c
800007a8: 79880813     	addi	a6, a6, 0x798
800007ac: 7a388893     	addi	a7, a7, 0x7a3
800007b0: 00600593     	li	a1, 0x6
800007b4: 00000097     	auipc	ra, 0x0
800007b8: 530080e7     	jalr	0x530(ra) <__tvm_set_raised_6>
800007bc: fff00513     	li	a0, -0x1
800007c0: 00813083     	ld	ra, 0x8(sp)
800007c4: 01010113     	addi	sp, sp, 0x10
800007c8: 00008067     	ret
800007cc: 00000517     	auipc	a0, 0x0
800007d0: 00000597     	auipc	a1, 0x0
800007d4: 00000697     	auipc	a3, 0x0
800007d8: 00000717     	auipc	a4, 0x0
800007dc: 00000797     	auipc	a5, 0x0
800007e0: 00000817     	auipc	a6, 0x0
800007e4: 00000897     	auipc	a7, 0x0
800007e8: 77250513     	addi	a0, a0, 0x772
800007ec: 77958613     	addi	a2, a1, 0x779
800007f0: 7d568693     	addi	a3, a3, 0x7d5
800007f4: 77f70713     	addi	a4, a4, 0x77f
800007f8: 76078793     	addi	a5, a5, 0x760
800007fc: 74480813     	addi	a6, a6, 0x744
80000800: 75688893     	addi	a7, a7, 0x756
80000804: 00800593     	li	a1, 0x8
80000808: 00000097     	auipc	ra, 0x0
8000080c: 500080e7     	jalr	0x500(ra) <__tvm_set_raised_12>
80000810: fff00513     	li	a0, -0x1
80000814: 00813083     	ld	ra, 0x8(sp)
80000818: 01010113     	addi	sp, sp, 0x10
8000081c: 00008067     	ret
80000820: 00000517     	auipc	a0, 0x0
80000824: 00000597     	auipc	a1, 0x0
80000828: 00000697     	auipc	a3, 0x0
8000082c: 00000717     	auipc	a4, 0x0
80000830: 00000797     	auipc	a5, 0x0
80000834: 00000817     	auipc	a6, 0x0
80000838: 00000897     	auipc	a7, 0x0
8000083c: 64050513     	addi	a0, a0, 0x640
80000840: 72558613     	addi	a2, a1, 0x725
80000844: 78168693     	addi	a3, a3, 0x781
80000848: 73f70713     	addi	a4, a4, 0x73f
8000084c: 70c78793     	addi	a5, a5, 0x70c
80000850: 6f080813     	addi	a6, a6, 0x6f0
80000854: 74888893     	addi	a7, a7, 0x748
80000858: 00800593     	li	a1, 0x8
8000085c: 00000097     	auipc	ra, 0x0
80000860: 4ac080e7     	jalr	0x4ac(ra) <__tvm_set_raised_12>
80000864: fff00513     	li	a0, -0x1
80000868: 00813083     	ld	ra, 0x8(sp)
8000086c: 01010113     	addi	sp, sp, 0x10
80000870: 00008067     	ret
80000874: 00000517     	auipc	a0, 0x0
80000878: 00000597     	auipc	a1, 0x0
8000087c: 00000697     	auipc	a3, 0x0
80000880: 00000717     	auipc	a4, 0x0
80000884: 00000797     	auipc	a5, 0x0
80000888: 00000817     	auipc	a6, 0x0
8000088c: 00000897     	auipc	a7, 0x0
80000890: 6ca50513     	addi	a0, a0, 0x6ca
80000894: 6d158613     	addi	a2, a1, 0x6d1
80000898: 72d68693     	addi	a3, a3, 0x72d
8000089c: 70870713     	addi	a4, a4, 0x708
800008a0: 6b878793     	addi	a5, a5, 0x6b8
800008a4: 69c80813     	addi	a6, a6, 0x69c
800008a8: 71788893     	addi	a7, a7, 0x717
800008ac: 00800593     	li	a1, 0x8
800008b0: 00000097     	auipc	ra, 0x0
800008b4: 458080e7     	jalr	0x458(ra) <__tvm_set_raised_12>
800008b8: fff00513     	li	a0, -0x1
800008bc: 00813083     	ld	ra, 0x8(sp)
800008c0: 01010113     	addi	sp, sp, 0x10
800008c4: 00008067     	ret
800008c8: 00000517     	auipc	a0, 0x0
800008cc: 00000597     	auipc	a1, 0x0
800008d0: 00000697     	auipc	a3, 0x0
800008d4: 00000717     	auipc	a4, 0x0
800008d8: 00000797     	auipc	a5, 0x0
800008dc: 00000817     	auipc	a6, 0x0
800008e0: 67650513     	addi	a0, a0, 0x676
800008e4: 67d58613     	addi	a2, a1, 0x67d
800008e8: 68568693     	addi	a3, a3, 0x685
800008ec: 6d770713     	addi	a4, a4, 0x6d7
800008f0: 64a78793     	addi	a5, a5, 0x64a
800008f4: 6e680813     	addi	a6, a6, 0x6e6
800008f8: 0880006f     	j	0x80000980 <__tvm_ffi_fdotproduct+0x870>
800008fc: 00000517     	auipc	a0, 0x0
80000900: 00000597     	auipc	a1, 0x0
80000904: 00000697     	auipc	a3, 0x0
80000908: 00000717     	auipc	a4, 0x0
8000090c: 00000797     	auipc	a5, 0x0
80000910: 00000817     	auipc	a6, 0x0
80000914: 00000897     	auipc	a7, 0x0
80000918: 64250513     	addi	a0, a0, 0x642
8000091c: 65558613     	addi	a2, a1, 0x655
80000920: 6e068693     	addi	a3, a3, 0x6e0
80000924: 61a70713     	addi	a4, a4, 0x61a
80000928: 57578793     	addi	a5, a5, 0x575
8000092c: 58480813     	addi	a6, a6, 0x584
80000930: 6f488893     	addi	a7, a7, 0x6f4
80000934: 00600593     	li	a1, 0x6
80000938: 00000097     	auipc	ra, 0x0
8000093c: 3ac080e7     	jalr	0x3ac(ra) <__tvm_set_raised_6>
80000940: fff00513     	li	a0, -0x1
80000944: 00813083     	ld	ra, 0x8(sp)
80000948: 01010113     	addi	sp, sp, 0x10
8000094c: 00008067     	ret
80000950: 00000517     	auipc	a0, 0x0
80000954: 00000597     	auipc	a1, 0x0
80000958: 00000697     	auipc	a3, 0x0
8000095c: 00000717     	auipc	a4, 0x0
80000960: 00000797     	auipc	a5, 0x0
80000964: 00000817     	auipc	a6, 0x0
80000968: 5ee50513     	addi	a0, a0, 0x5ee
8000096c: 5f558613     	addi	a2, a1, 0x5f5
80000970: 64f68693     	addi	a3, a3, 0x64f
80000974: 64f70713     	addi	a4, a4, 0x64f
80000978: 5da78793     	addi	a5, a5, 0x5da
8000097c: 65e80813     	addi	a6, a6, 0x65e
80000980: 00700593     	li	a1, 0x7
80000984: 00000893     	li	a7, 0x0
80000988: 00000097     	auipc	ra, 0x0
8000098c: 380080e7     	jalr	0x380(ra) <__tvm_set_raised_12>
80000990: fff00513     	li	a0, -0x1
80000994: 00813083     	ld	ra, 0x8(sp)
80000998: 01010113     	addi	sp, sp, 0x10
8000099c: 00008067     	ret
800009a0: 00000517     	auipc	a0, 0x0
800009a4: 00000597     	auipc	a1, 0x0
800009a8: 00000697     	auipc	a3, 0x0
800009ac: 00000717     	auipc	a4, 0x0
800009b0: 00000797     	auipc	a5, 0x0
800009b4: 00000817     	auipc	a6, 0x0
800009b8: 00000897     	auipc	a7, 0x0
800009bc: 59e50513     	addi	a0, a0, 0x59e
800009c0: 5a558613     	addi	a2, a1, 0x5a5
800009c4: 68468693     	addi	a3, a3, 0x684
800009c8: 68c70713     	addi	a4, a4, 0x68c
800009cc: 58a78793     	addi	a5, a5, 0x58a
800009d0: 69380813     	addi	a6, a6, 0x693
800009d4: 6a788893     	addi	a7, a7, 0x6a7
800009d8: 00800593     	li	a1, 0x8
800009dc: 00000097     	auipc	ra, 0x0
800009e0: 32c080e7     	jalr	0x32c(ra) <__tvm_set_raised_12>
800009e4: fff00513     	li	a0, -0x1
800009e8: 00813083     	ld	ra, 0x8(sp)
800009ec: 01010113     	addi	sp, sp, 0x10
800009f0: 00008067     	ret
800009f4: 00000517     	auipc	a0, 0x0
800009f8: 00000597     	auipc	a1, 0x0
800009fc: 00000697     	auipc	a3, 0x0
80000a00: 00000717     	auipc	a4, 0x0
80000a04: 00000797     	auipc	a5, 0x0
80000a08: 00000817     	auipc	a6, 0x0
80000a0c: 00000897     	auipc	a7, 0x0
80000a10: 54a50513     	addi	a0, a0, 0x54a
80000a14: 5af58613     	addi	a2, a1, 0x5af
80000a18: 5e868693     	addi	a3, a3, 0x5e8
80000a1c: 53a70713     	addi	a4, a4, 0x53a
80000a20: 47d78793     	addi	a5, a5, 0x47d
80000a24: 48c80813     	addi	a6, a6, 0x48c
80000a28: 5fc88893     	addi	a7, a7, 0x5fc
80000a2c: 00600593     	li	a1, 0x6
80000a30: 00000097     	auipc	ra, 0x0
80000a34: 2b4080e7     	jalr	0x2b4(ra) <__tvm_set_raised_6>
80000a38: fff00513     	li	a0, -0x1
80000a3c: 00813083     	ld	ra, 0x8(sp)
80000a40: 01010113     	addi	sp, sp, 0x10
80000a44: 00008067     	ret
80000a48: 00000517     	auipc	a0, 0x0
80000a4c: 00000597     	auipc	a1, 0x0
80000a50: 00000697     	auipc	a3, 0x0
80000a54: 00000717     	auipc	a4, 0x0
80000a58: 00000797     	auipc	a5, 0x0
80000a5c: 00000817     	auipc	a6, 0x0
80000a60: 00000897     	auipc	a7, 0x0
80000a64: 4f650513     	addi	a0, a0, 0x4f6
80000a68: 4fd58613     	addi	a2, a1, 0x4fd
80000a6c: 61b68693     	addi	a3, a3, 0x61b
80000a70: 5e470713     	addi	a4, a4, 0x5e4
80000a74: 4e478793     	addi	a5, a5, 0x4e4
80000a78: 5eb80813     	addi	a6, a6, 0x5eb
80000a7c: 5ff88893     	addi	a7, a7, 0x5ff
80000a80: 00800593     	li	a1, 0x8
80000a84: 00000097     	auipc	ra, 0x0
80000a88: 284080e7     	jalr	0x284(ra) <__tvm_set_raised_12>
80000a8c: fff00513     	li	a0, -0x1
80000a90: 00813083     	ld	ra, 0x8(sp)
80000a94: 01010113     	addi	sp, sp, 0x10
80000a98: 00008067     	ret
80000a9c: 00000517     	auipc	a0, 0x0
80000aa0: 00000597     	auipc	a1, 0x0
80000aa4: 00000697     	auipc	a3, 0x0
80000aa8: 00000717     	auipc	a4, 0x0
80000aac: 00000797     	auipc	a5, 0x0
80000ab0: 00000817     	auipc	a6, 0x0
80000ab4: 00000897     	auipc	a7, 0x0
80000ab8: 4a250513     	addi	a0, a0, 0x4a2
80000abc: 50958613     	addi	a2, a1, 0x509
80000ac0: 54068693     	addi	a3, a3, 0x540
80000ac4: 49470713     	addi	a4, a4, 0x494
80000ac8: 3d578793     	addi	a5, a5, 0x3d5
80000acc: 3e480813     	addi	a6, a6, 0x3e4
80000ad0: 55488893     	addi	a7, a7, 0x554
80000ad4: 00600593     	li	a1, 0x6
80000ad8: 00000097     	auipc	ra, 0x0
80000adc: 20c080e7     	jalr	0x20c(ra) <__tvm_set_raised_6>
80000ae0: fff00513     	li	a0, -0x1
80000ae4: 00813083     	ld	ra, 0x8(sp)
80000ae8: 01010113     	addi	sp, sp, 0x10
80000aec: 00008067     	ret
80000af0: 00000517     	auipc	a0, 0x0
80000af4: 00000597     	auipc	a1, 0x0
80000af8: 00000697     	auipc	a3, 0x0
80000afc: 00000717     	auipc	a4, 0x0
80000b00: 00000797     	auipc	a5, 0x0
80000b04: 00000817     	auipc	a6, 0x0
80000b08: 00000897     	auipc	a7, 0x0
80000b0c: 44e50513     	addi	a0, a0, 0x44e
80000b10: 58358613     	addi	a2, a1, 0x583
80000b14: 58868693     	addi	a3, a3, 0x588
80000b18: 53c70713     	addi	a4, a4, 0x53c
80000b1c: 42278793     	addi	a5, a5, 0x422
80000b20: 42080813     	addi	a6, a6, 0x420
80000b24: 58388893     	addi	a7, a7, 0x583
80000b28: 00800593     	li	a1, 0x8
80000b2c: 00000097     	auipc	ra, 0x0
80000b30: 1dc080e7     	jalr	0x1dc(ra) <__tvm_set_raised_12>
80000b34: fff00513     	li	a0, -0x1
80000b38: 00813083     	ld	ra, 0x8(sp)
80000b3c: 01010113     	addi	sp, sp, 0x10
80000b40: 00008067     	ret
80000b44: 00000517     	auipc	a0, 0x0
80000b48: 00000597     	auipc	a1, 0x0
80000b4c: 00000697     	auipc	a3, 0x0
80000b50: 00000717     	auipc	a4, 0x0
80000b54: 00000797     	auipc	a5, 0x0
80000b58: 00000897     	auipc	a7, 0x0
80000b5c: 3fa50513     	addi	a0, a0, 0x3fa
80000b60: 52f58613     	addi	a2, a1, 0x52f
80000b64: 54268693     	addi	a3, a3, 0x542
80000b68: 4e870713     	addi	a4, a4, 0x4e8
80000b6c: 3d078813     	addi	a6, a5, 0x3d0
80000b70: 3ca88793     	addi	a5, a7, 0x3ca
80000b74: 00800593     	li	a1, 0x8
80000b78: 00078893     	mv	a7, a5
80000b7c: 00000097     	auipc	ra, 0x0
80000b80: 18c080e7     	jalr	0x18c(ra) <__tvm_set_raised_12>
80000b84: fff00513     	li	a0, -0x1
80000b88: 00813083     	ld	ra, 0x8(sp)
80000b8c: 01010113     	addi	sp, sp, 0x10
80000b90: 00008067     	ret
80000b94: 00000517     	auipc	a0, 0x0
80000b98: 00000597     	auipc	a1, 0x0
80000b9c: 00000697     	auipc	a3, 0x0
80000ba0: 00000717     	auipc	a4, 0x0
80000ba4: 00000797     	auipc	a5, 0x0
80000ba8: 00000817     	auipc	a6, 0x0
80000bac: 00000897     	auipc	a7, 0x0
80000bb0: 3aa50513     	addi	a0, a0, 0x3aa
80000bb4: 4df58613     	addi	a2, a1, 0x4df
80000bb8: 50068693     	addi	a3, a3, 0x500
80000bbc: 49870713     	addi	a4, a4, 0x498
80000bc0: 39678793     	addi	a5, a5, 0x396
80000bc4: 37c80813     	addi	a6, a6, 0x37c
80000bc8: 4df88893     	addi	a7, a7, 0x4df
80000bcc: 00800593     	li	a1, 0x8
80000bd0: 00000097     	auipc	ra, 0x0
80000bd4: 138080e7     	jalr	0x138(ra) <__tvm_set_raised_12>
80000bd8: fff00513     	li	a0, -0x1
80000bdc: 00813083     	ld	ra, 0x8(sp)
80000be0: 01010113     	addi	sp, sp, 0x10
80000be4: 00008067     	ret
80000be8: 00000517     	auipc	a0, 0x0
80000bec: 00000597     	auipc	a1, 0x0
80000bf0: 00000697     	auipc	a3, 0x0
80000bf4: 00000717     	auipc	a4, 0x0
80000bf8: 00000797     	auipc	a5, 0x0
80000bfc: 00000817     	auipc	a6, 0x0
80000c00: 00000897     	auipc	a7, 0x0
80000c04: 35650513     	addi	a0, a0, 0x356
80000c08: 48b58613     	addi	a2, a1, 0x48b
80000c0c: 4b768693     	addi	a3, a3, 0x4b7
80000c10: 44470713     	addi	a4, a4, 0x444
80000c14: 34278793     	addi	a5, a5, 0x342
80000c18: 32880813     	addi	a6, a6, 0x328
80000c1c: 32288893     	addi	a7, a7, 0x322
80000c20: 00800593     	li	a1, 0x8
80000c24: 00000097     	auipc	ra, 0x0
80000c28: 0e4080e7     	jalr	0xe4(ra) <__tvm_set_raised_12>
80000c2c: fff00513     	li	a0, -0x1
80000c30: 00813083     	ld	ra, 0x8(sp)
80000c34: 01010113     	addi	sp, sp, 0x10
80000c38: 00008067     	ret
80000c3c: 00000517     	auipc	a0, 0x0
80000c40: 00000597     	auipc	a1, 0x0
80000c44: 00000697     	auipc	a3, 0x0
80000c48: 00000717     	auipc	a4, 0x0
80000c4c: 00000797     	auipc	a5, 0x0
80000c50: 00000817     	auipc	a6, 0x0
80000c54: 00000897     	auipc	a7, 0x0
80000c58: 30250513     	addi	a0, a0, 0x302
80000c5c: 43758613     	addi	a2, a1, 0x437
80000c60: 47168693     	addi	a3, a3, 0x471
80000c64: 3f070713     	addi	a4, a4, 0x3f0
80000c68: 2f078793     	addi	a5, a5, 0x2f0
80000c6c: 2d480813     	addi	a6, a6, 0x2d4
80000c70: 2e688893     	addi	a7, a7, 0x2e6
80000c74: 00800593     	li	a1, 0x8
80000c78: 00000097     	auipc	ra, 0x0
80000c7c: 090080e7     	jalr	0x90(ra) <__tvm_set_raised_12>
80000c80: fff00513     	li	a0, -0x1
80000c84: 00813083     	ld	ra, 0x8(sp)
80000c88: 01010113     	addi	sp, sp, 0x10
80000c8c: 00008067     	ret
80000c90: 00000517     	auipc	a0, 0x0
80000c94: 00000597     	auipc	a1, 0x0
80000c98: 00000697     	auipc	a3, 0x0
80000c9c: 00000717     	auipc	a4, 0x0
80000ca0: 00000797     	auipc	a5, 0x0
80000ca4: 00000817     	auipc	a6, 0x0
80000ca8: 00000897     	auipc	a7, 0x0
80000cac: 2ae50513     	addi	a0, a0, 0x2ae
80000cb0: 3e358613     	addi	a2, a1, 0x3e3
80000cb4: 42868693     	addi	a3, a3, 0x428
80000cb8: 39c70713     	addi	a4, a4, 0x39c
80000cbc: 29c78793     	addi	a5, a5, 0x29c
80000cc0: 28080813     	addi	a6, a6, 0x280
80000cc4: 27a88893     	addi	a7, a7, 0x27a
80000cc8: 00800593     	li	a1, 0x8
80000ccc: 00000097     	auipc	ra, 0x0
80000cd0: 03c080e7     	jalr	0x3c(ra) <__tvm_set_raised_12>
80000cd4: fff00513     	li	a0, -0x1
80000cd8: 00813083     	ld	ra, 0x8(sp)
80000cdc: 01010113     	addi	sp, sp, 0x10
80000ce0: 00008067     	ret

0000000080000ce4 <__tvm_set_raised_6>:
80000ce4: 7139         	addi	sp, sp, -0x40
80000ce6: fc06         	sd	ra, 0x38(sp)
80000ce8: 82ae         	mv	t0, a1
80000cea: e432         	sd	a2, 0x8(sp)
80000cec: e836         	sd	a3, 0x10(sp)
80000cee: ec3a         	sd	a4, 0x18(sp)
80000cf0: f03e         	sd	a5, 0x20(sp)
80000cf2: f442         	sd	a6, 0x28(sp)
80000cf4: f846         	sd	a7, 0x30(sp)
80000cf6: 002c         	addi	a1, sp, 0x8
80000cf8: 8616         	mv	a2, t0
80000cfa: 00000097     	auipc	ra, 0x0
80000cfe: 08a080e7     	jalr	0x8a(ra) <TVMFFIErrorSetRaisedFromCStrParts>
80000d02: 70e2         	ld	ra, 0x38(sp)
80000d04: 6121         	addi	sp, sp, 0x40
80000d06: 8082         	ret

0000000080000d08 <__tvm_set_raised_12>:
80000d08: 7159         	addi	sp, sp, -0x70
80000d0a: f486         	sd	ra, 0x68(sp)
80000d0c: 82ae         	mv	t0, a1
80000d0e: e432         	sd	a2, 0x8(sp)
80000d10: e836         	sd	a3, 0x10(sp)
80000d12: ec3a         	sd	a4, 0x18(sp)
80000d14: f03e         	sd	a5, 0x20(sp)
80000d16: 00000597     	auipc	a1, 0x0
80000d1a: 00000617     	auipc	a2, 0x0
80000d1e: 16b58593     	addi	a1, a1, 0x16b
80000d22: 17a60613     	addi	a2, a2, 0x17a
80000d26: f42e         	sd	a1, 0x28(sp)
80000d28: f832         	sd	a2, 0x30(sp)
80000d2a: fc42         	sd	a6, 0x38(sp)
80000d2c: e0c6         	sd	a7, 0x40(sp)
80000d2e: e482         	sd	zero, 0x48(sp)
80000d30: e882         	sd	zero, 0x50(sp)
80000d32: ec82         	sd	zero, 0x58(sp)
80000d34: f082         	sd	zero, 0x60(sp)
80000d36: 002c         	addi	a1, sp, 0x8
80000d38: 8616         	mv	a2, t0
80000d3a: 00000097     	auipc	ra, 0x0
80000d3e: 04a080e7     	jalr	0x4a(ra) <TVMFFIErrorSetRaisedFromCStrParts>
80000d42: 70a6         	ld	ra, 0x68(sp)
80000d44: 6165         	addi	sp, sp, 0x70
80000d46: 8082         	ret

0000000080000d48 <fdotproduct_compute_>:
80000d48: ff010113     	addi	sp, sp, -0x10
80000d4c: 00113423     	sd	ra, 0x8(sp)
80000d50: 00813023     	sd	s0, 0x0(sp)
80000d54: 00060693     	mv	a3, a2
80000d58: 00050413     	mv	s0, a0
80000d5c: 04000613     	li	a2, 0x40
80000d60: 00058513     	mv	a0, a1
80000d64: 00068593     	mv	a1, a3
80000d68: 00000097     	auipc	ra, 0x0
80000d6c: 0ac080e7     	jalr	0xac(ra) <fdotp_v32b>
80000d70: 00a42027     	fsw	fa0, 0x0(s0)
80000d74: 00813083     	ld	ra, 0x8(sp)
80000d78: 00013403     	ld	s0, 0x0(sp)
80000d7c: 01010113     	addi	sp, sp, 0x10
80000d80: 00008067     	ret

0000000080000d84 <TVMFFIErrorSetRaisedFromCStrParts>:
80000d84: 8082         	ret

0000000080000d86 <main>:
80000d86: 7155         	addi	sp, sp, -0xd0
80000d88: e586         	sd	ra, 0xc8(sp)
80000d8a: e1a2         	sd	s0, 0xc0(sp)
80000d8c: 00000517     	auipc	a0, 0x0
80000d90: 4585         	li	a1, 0x1
80000d92: 09001837     	lui	a6, 0x9001
80000d96: f902         	sd	zero, 0xb0(sp)
80000d98: fd02         	sd	zero, 0xb8(sp)
80000d9a: e102         	sd	zero, 0x80(sp)
80000d9c: e502         	sd	zero, 0x88(sp)
80000d9e: e882         	sd	zero, 0x50(sp)
80000da0: ec82         	sd	zero, 0x58(sp)
80000da2: 469d         	li	a3, 0x7
80000da4: 0918         	addi	a4, sp, 0x90
80000da6: 109c         	addi	a5, sp, 0x60
80000da8: 1810         	addi	a2, sp, 0x30
80000daa: 4f450413     	addi	s0, a0, 0x4f4
80000dae: 0856         	slli	a6, a6, 0x15
80000db0: e036         	sd	a3, 0x0(sp)
80000db2: e43a         	sd	a4, 0x8(sp)
80000db4: e836         	sd	a3, 0x10(sp)
80000db6: ec3e         	sd	a5, 0x18(sp)
80000db8: 0c040513     	addi	a0, s0, 0xc0
80000dbc: 0805         	addi	a6, a6, 0x1
80000dbe: 04040713     	addi	a4, s0, 0x40
80000dc2: 1c040793     	addi	a5, s0, 0x1c0
80000dc6: e92a         	sd	a0, 0x90(sp)
80000dc8: ed2e         	sd	a1, 0x98(sp)
80000dca: f142         	sd	a6, 0xa0(sp)
80000dcc: f53a         	sd	a4, 0xa8(sp)
80000dce: f0be         	sd	a5, 0x60(sp)
80000dd0: f4ae         	sd	a1, 0x68(sp)
80000dd2: f8c2         	sd	a6, 0x70(sp)
80000dd4: fcba         	sd	a4, 0x78(sp)
80000dd6: 08040513     	addi	a0, s0, 0x80
80000dda: f822         	sd	s0, 0x30(sp)
80000ddc: fc2e         	sd	a1, 0x38(sp)
80000dde: e0c2         	sd	a6, 0x40(sp)
80000de0: e4aa         	sd	a0, 0x48(sp)
80000de2: f036         	sd	a3, 0x20(sp)
80000de4: f432         	sd	a2, 0x28(sp)
80000de6: 858a         	mv	a1, sp
80000de8: 460d         	li	a2, 0x3
80000dea: 4501         	li	a0, 0x0
80000dec: 4681         	li	a3, 0x0
80000dee: fffff097     	auipc	ra, 0xfffff
80000df2: 322080e7     	jalr	0x322(ra) <timer+0xffffebd0>
80000df6: e919         	bnez	a0, 0x80000e0c <main+0x86>
80000df8: 00042787     	flw	fa5, 0x0(s0)
80000dfc: 44fc0537     	lui	a0, 0x44fc0
80000e00: f0050753     	fmv.w.x	fa4, a0
80000e04: a0e7a553     	feq.s	a0, fa5, fa4
80000e08: 00154513     	xori	a0, a0, 0x1
80000e0c: 60ae         	ld	ra, 0xc8(sp)
80000e0e: 640e         	ld	s0, 0xc0(sp)
80000e10: 6169         	addi	sp, sp, 0xd0
80000e12: 8082         	ret

0000000080000e14 <fdotp_v32b>:
80000e14: 0d3676d7     	vsetvli	a3, a2, e32, m8, ta, ma
80000e18: 42006057     	vmv.s.x	v0, zero
80000e1c: ca1d         	beqz	a2, 0x80000e52 <fdotp_v32b+0x3e>
80000e1e: 86b2         	mv	a3, a2
80000e20: a809         	j	0x80000e32 <fdotp_v32b+0x1e>
80000e22: 92881c57     	vfmul.vv	v24, v8, v16
80000e26: 00271793     	slli	a5, a4, 0x2
80000e2a: 8e99         	sub	a3, a3, a4
80000e2c: 953e         	add	a0, a0, a5
80000e2e: 95be         	add	a1, a1, a5
80000e30: c28d         	beqz	a3, 0x80000e52 <fdotp_v32b+0x3e>
80000e32: 0d36f757     	vsetvli	a4, a3, e32, m8, ta, ma
80000e36: 02056407     	vle32.v	v8, (a0)
80000e3a: 0205e807     	vle32.v	v16, (a1)
80000e3e: fec682e3     	beq	a3, a2, 0x80000e22 <fdotp_v32b+0xe>
80000e42: b3041c57     	vfmacc.vv	v24, v8, v16
80000e46: 00271793     	slli	a5, a4, 0x2
80000e4a: 8e99         	sub	a3, a3, a4
80000e4c: 953e         	add	a0, a0, a5
80000e4e: 95be         	add	a1, a1, a5
80000e50: f2ed         	bnez	a3, 0x80000e32 <fdotp_v32b+0x1e>
80000e52: 07801057     	vfredusum.vs	v0, v24, v0
80000e56: 42001557     	vfmv.f.s	fa0, v0
80000e5a: 8082         	ret

Disassembly of section .rodata:

0000000080000e60 <.rodata>:
80000e60: 7954         	ld	a3, 0xb0(a0)
80000e62: 6570         	ld	a2, 0xc8(a0)
80000e64: 7245         	lui	tp, 0xffff1
80000e66: 6f72         	ld	t5, 0x118(sp)
80000e68: 0072         	c.slli	zero, 0x1c
80000e6a: 7845         	lui	a6, 0xffff1
80000e6c: 6570         	ld	a2, 0xc8(a0)
80000e6e: 64657463     	bgeu	a0, t1, 0x800014b6 <b_data+0x76>
80000e72: 0020         	addi	s0, sp, 0x8
80000e74: 61200033     	<unknown>
80000e78: 6772         	ld	a4, 0x118(sp)
80000e7a: 6d75         	lui	s10, 0x1d
80000e7c: 6e65         	lui	t3, 0x19
80000e7e: 7374         	ld	a3, 0xe0(a4)
80000e80: 2000         	fld	fs0, 0x0(s0)
80000e82: 6e656877     	<unknown>
80000e86: 6320         	ld	s0, 0x40(a4)
80000e88: 6c61         	lui	s8, 0x18
80000e8a: 696c         	ld	a1, 0xd0(a0)
80000e8c: 676e         	ld	a4, 0xd8(sp)
80000e8e: 0a3a         	slli	s4, s4, 0xe
80000e90: 2020         	fld	fs0, 0x40(s0)
80000e92: 0060         	addi	s0, sp, 0xc
80000e94: 6466         	ld	s0, 0x58(sp)
80000e96: 7270746f     	jal	s0, 0x80008dbc <timer+0x787c>
80000e9a: 6375646f     	jal	s0, 0x80057cd0 <timer+0x56790>
80000e9e: 2874         	fld	fa3, 0xd0(s0)
80000ea0: 3a61         	addiw	s4, s4, -0x8
80000ea2: 5420         	lw	s0, 0x68(s0)
80000ea4: 6e65         	lui	t3, 0x19
80000ea6: 28726f73     	csrrsi	t5, 0x287, 0x4
80000eaa: 5d34365b     	<unknown>
80000eae: 202c         	fld	fa1, 0x40(s0)
80000eb0: 6c66         	ld	s8, 0x58(sp)
80000eb2: 3374616f     	jal	sp, 0x800479e8 <timer+0x464a8>
80000eb6: 2932         	fld	fs2, 0x108(sp)
80000eb8: 202c         	fld	fa1, 0x40(s0)
80000eba: 3a62         	fld	fs4, 0x38(sp)
80000ebc: 5420         	lw	s0, 0x68(s0)
80000ebe: 6e65         	lui	t3, 0x19
80000ec0: 28726f73     	csrrsi	t5, 0x287, 0x4
80000ec4: 5d34365b     	<unknown>
80000ec8: 202c         	fld	fa1, 0x40(s0)
80000eca: 6c66         	ld	s8, 0x58(sp)
80000ecc: 3374616f     	jal	sp, 0x80047a02 <timer+0x464c2>
80000ed0: 2932         	fld	fs2, 0x108(sp)
80000ed2: 202c         	fld	fa1, 0x40(s0)
80000ed4: 54203a63     	<unknown>
80000ed8: 6e65         	lui	t3, 0x19
80000eda: 28726f73     	csrrsi	t5, 0x287, 0x4
80000ede: 2c5d315b     	<unknown>
80000ee2: 6620         	ld	s0, 0x48(a2)
80000ee4: 6f6c         	ld	a1, 0xd8(a4)
80000ee6: 7461         	lui	s0, 0xffff8
80000ee8: 29293233     	<unknown>
80000eec: 6000         	ld	s0, 0x0(s0)
80000eee: 6100         	ld	s0, 0x0(a0)
80000ef0: 6772         	ld	a4, 0x118(sp)
80000ef2: 6f702073     	csrr	zero, 0x6f7
80000ef6: 6e69         	lui	t3, 0x1a
80000ef8: 6574         	ld	a3, 0xc8(a0)
80000efa: 2072         	fld	ft0, 0x118(sp)
80000efc: 7369         	lui	t1, 0xffffa
80000efe: 4e20         	lw	s0, 0x58(a2)
80000f00: 4c55         	li	s8, 0x15
80000f02: 004c         	addi	a1, sp, 0x4
80000f04: 694d         	lui	s2, 0x13
80000f06: 74616d73     	csrrsi	s10, 0x746, 0x2
80000f0a: 64656863     	bltu	a0, t1, 0x8000155a <timer+0x1a>
80000f0e: 7420         	ld	s0, 0x68(s0)
80000f10: 7079         	c.lui	zero, -0x2
80000f12: 2065         	<unknown>
80000f14: 61206e6f     	jal	t3, 0x80007526 <timer+0x5fe6>
80000f18: 6772         	ld	a4, 0x118(sp)
80000f1a: 6d75         	lui	s10, 0x1d
80000f1c: 6e65         	lui	t3, 0x19
80000f1e: 2074         	fld	fa3, 0xc0(s0)
80000f20: 00300023     	sb	gp, 0x0(zero)
80000f24: 2c60         	fld	fs0, 0xd8(s0)
80000f26: 200a         	fld	ft0, 0x80(sp)
80000f28: 6520         	ld	s0, 0x48(a0)
80000f2a: 7078         	ld	a4, 0xe0(s0)
80000f2c: 6365         	lui	t1, 0x19
80000f2e: 6574         	ld	a3, 0xc8(a0)
80000f30: 2064         	fld	fs1, 0xc0(s0)
80000f32: 5400         	lw	s0, 0x28(s0)
80000f34: 6e65         	lui	t3, 0x19
80000f36: 00726f73     	csrrsi	t5, 0x7, 0x4
80000f3a: 0031         	c.nop	0xc
80000f3c: 0032         	c.slli	zero, 0xc
80000f3e: 6156         	ld	sp, 0x150(sp)
80000f40: 756c         	ld	a1, 0xe8(a0)
80000f42: 4565         	li	a0, 0x19
80000f44: 7272         	ld	tp, 0x138(sp)
80000f46: 4d00726f     	jal	tp, 0x80008416 <timer+0x6ed6>
80000f4a: 7369         	lui	t1, 0xffffa
80000f4c: 616d         	addi	sp, sp, 0xf0
80000f4e: 6374         	ld	a3, 0xc0(a4)
80000f50: 6568         	ld	a0, 0xc8(a0)
80000f52: 2064         	fld	fs1, 0xc0(s0)
80000f54: 6100         	ld	s0, 0x0(a0)
80000f56: 2e00         	fld	fs0, 0x18(a2)
80000f58: 646e         	ld	s0, 0xd8(sp)
80000f5a: 6d69         	lui	s10, 0x1a
80000f5c: 6f20         	ld	s0, 0x58(a4)
80000f5e: 206e         	fld	ft0, 0xd8(sp)
80000f60: 7261         	lui	tp, 0xffff8
80000f62: 656d7567     	<unknown>
80000f66: 746e         	ld	s0, 0xf8(sp)
80000f68: 2320         	fld	fs0, 0x40(a4)
80000f6a: 2e00         	fld	fs0, 0x18(a2)
80000f6c: 7464         	ld	s1, 0xe8(s0)
80000f6e: 7079         	c.lui	zero, -0x2
80000f70: 2065         	<unknown>
80000f72: 61206e6f     	jal	t3, 0x80007584 <timer+0x6044>
80000f76: 6772         	ld	a4, 0x118(sp)
80000f78: 6d75         	lui	s10, 0x1d
80000f7a: 6e65         	lui	t3, 0x19
80000f7c: 2074         	fld	fa3, 0xc0(s0)
80000f7e: 6c660023     	sb	t1, 0x6c0(a2)
80000f82: 3374616f     	jal	sp, 0x80047ab8 <timer+0x46578>
80000f86: 0032         	c.slli	zero, 0xc
80000f88: 642e         	ld	s0, 0xc8(sp)
80000f8a: 7665         	lui	a2, 0xffff9
80000f8c: 6369         	lui	t1, 0x1a
80000f8e: 5f65         	li	t5, -0x7
80000f90: 7974         	ld	a3, 0xf0(a0)
80000f92: 6570         	ld	a2, 0xc8(a0)
80000f94: 6f20         	ld	s0, 0x58(a4)
80000f96: 206e         	fld	ft0, 0xd8(sp)
80000f98: 7261         	lui	tp, 0xffff8
80000f9a: 656d7567     	<unknown>
80000f9e: 746e         	ld	s0, 0xf8(sp)
80000fa0: 2320         	fld	fs0, 0x40(a4)
80000fa2: 6300         	ld	s0, 0x0(a4)
80000fa4: 7570         	ld	a2, 0xe8(a0)
80000fa6: 6200         	ld	s0, 0x0(a2)
80000fa8: 6300         	ld	s0, 0x0(a4)
80000faa: 2e00         	fld	fs0, 0x18(a2)
80000fac: 69727473     	csrrci	s0, 0x697, 0x4
80000fb0: 6564         	ld	s1, 0xc8(a0)
80000fb2: 6e6f2073     	csrs	0x6e6, t5
80000fb6: 6120         	ld	s0, 0x40(a0)
80000fb8: 6772         	ld	a4, 0x118(sp)
80000fba: 6d75         	lui	s10, 0x1d
80000fbc: 6e65         	lui	t3, 0x19
80000fbe: 2074         	fld	fa3, 0xc0(s0)
80000fc0: 2c600023     	sb	t1, 0x2c0(zero)
80000fc4: 200a         	fld	ft0, 0x80(sp)
80000fc6: 6520         	ld	s0, 0x48(a0)
80000fc8: 7078         	ld	a4, 0xe0(s0)
80000fca: 6365         	lui	t1, 0x19
80000fcc: 6574         	ld	a3, 0xc8(a0)
80000fce: 2064         	fld	fs1, 0xc0(s0)
80000fd0: 6f74         	ld	a3, 0xd8(a4)
80000fd2: 6220         	ld	s0, 0x40(a2)
80000fd4: 2065         	<unknown>
80000fd6: 706d6f63     	bltu	s10, t1, 0x800016f4 <timer+0x1b4>
80000fda: 6361         	lui	t1, 0x18
80000fdc: 2074         	fld	fa3, 0xc0(s0)
80000fde: 7261         	lui	tp, 0xffff8
80000fe0: 6172         	ld	sp, 0x118(sp)
80000fe2: 0079         	c.nop	0x1e
80000fe4: 6420         	ld	s0, 0x48(s0)
80000fe6: 7461         	lui	s0, 0xffff8
80000fe8: 2061         	<unknown>
80000fea: 6f70         	ld	a2, 0xd8(a4)
80000fec: 6e69         	lui	t3, 0x1a
80000fee: 6574         	ld	a3, 0xc8(a0)
80000ff0: 2072         	fld	ft0, 0x118(sp)
80000ff2: 7369         	lui	t1, 0xffffa
80000ff4: 4e20         	lw	s0, 0x58(a2)
80000ff6: 4c55         	li	s8, 0x15
80000ff8: 204c         	fld	fa1, 0x80(s0)
80000ffa: 61206e6f     	jal	t3, 0x8000760c <timer+0x60cc>
80000ffe: 6772         	ld	a4, 0x118(sp)
80001000: 6d75         	lui	s10, 0x1d
80001002: 6e65         	lui	t3, 0x19
80001004: 2074         	fld	fa3, 0xc0(s0)
80001006: 2c600023     	sb	t1, 0x2c0(zero)
8000100a: 200a         	fld	ft0, 0x80(sp)
8000100c: 6520         	ld	s0, 0x48(a0)
8000100e: 7078         	ld	a4, 0xe0(s0)
80001010: 6365         	lui	t1, 0x19
80001012: 6574         	ld	a3, 0xc8(a0)
80001014: 2064         	fld	fs1, 0xc0(s0)
80001016: 6f6e         	ld	t5, 0xd8(sp)
80001018: 2d6e         	fld	fs10, 0xd8(sp)
8000101a: 554e         	lw	a0, 0xf0(sp)
8000101c: 4c4c         	lw	a1, 0x1c(s0)
8000101e: 6420         	ld	s0, 0x48(s0)
80001020: 7461         	lui	s0, 0xffff8
80001022: 2061         	<unknown>
80001024: 6f70         	ld	a2, 0xd8(a4)
80001026: 6e69         	lui	t3, 0x1a
80001028: 6574         	ld	a3, 0xc8(a0)
8000102a: 0072         	c.slli	zero, 0x1c
8000102c: 2e62         	fld	ft8, 0x18(sp)
8000102e: 6564         	ld	s1, 0xc8(a0)
80001030: 6976         	ld	s2, 0x158(sp)
80001032: 695f6563     	bltu	t5, s5, 0x800016bc <timer+0x17c>
80001036: 0064         	addi	s1, sp, 0xc
80001038: 6f20         	ld	s0, 0x58(a4)
8000103a: 206e         	fld	ft0, 0xd8(sp)
8000103c: 7261         	lui	tp, 0xffff8
8000103e: 656d7567     	<unknown>
80001042: 746e         	ld	s0, 0xf8(sp)
80001044: 2320         	fld	fs0, 0x40(a4)
80001046: 6000         	ld	s0, 0x0(s0)
80001048: 0a2c         	addi	a1, sp, 0x118
8000104a: 2020         	fld	fs0, 0x40(s0)
8000104c: 7865         	lui	a6, 0xffff9
8000104e: 6570         	ld	a2, 0xc8(a0)
80001050: 64657463     	bgeu	a0, t1, 0x80001698 <timer+0x158>
80001054: 7420         	ld	s0, 0x68(s0)
80001056: 616d206f     	j	0x800d366c <timer+0xd212c>
8000105a: 6374         	ld	a3, 0xc0(a4)
8000105c: 2068         	fld	fa0, 0xc0(s0)
8000105e: 6100         	ld	s0, 0x0(a0)
80001060: 642e         	ld	s0, 0xc8(sp)
80001062: 7665         	lui	a2, 0xffff9
80001064: 6369         	lui	t1, 0x1a
80001066: 5f65         	li	t5, -0x7
80001068: 6469         	lui	s0, 0x1a
8000106a: 6300         	ld	s0, 0x0(a4)
8000106c: 642e         	ld	s0, 0xc8(sp)
8000106e: 7665         	lui	a2, 0xffff9
80001070: 6369         	lui	t1, 0x1a
80001072: 5f65         	li	t5, -0x7
80001074: 6469         	lui	s0, 0x1a
80001076: 4900         	lw	s0, 0x10(a0)
80001078: 766e         	ld	a2, 0xf8(sp)
8000107a: 6c61         	lui	s8, 0x18
8000107c: 6469         	lui	s0, 0x1a
8000107e: 0020         	addi	s0, sp, 0x8
80001080: 2e61         	addiw	t3, t3, 0x18
80001082: 70616873     	csrrsi	a6, 0x706, 0x2
80001086: 5b65         	li	s6, -0x7
80001088: 5d30         	lw	a2, 0x78(a0)
8000108a: 3600         	fld	fs0, 0x28(a2)
8000108c: 0034         	addi	a3, sp, 0x8
8000108e: 2e61         	addiw	t3, t3, 0x18
80001090: 7962         	ld	s2, 0x38(sp)
80001092: 6574         	ld	a3, 0xc8(a0)
80001094: 6f5f 6666 6573       	<unknown>
8000109a: 0074         	addi	a3, sp, 0xc
8000109c: 2e62         	fld	ft8, 0x18(sp)
8000109e: 70616873     	csrrsi	a6, 0x706, 0x2
800010a2: 5b65         	li	s6, -0x7
800010a4: 5d30         	lw	a2, 0x78(a0)
800010a6: 6200         	ld	s0, 0x0(a2)
800010a8: 622e         	ld	tp, 0xc8(sp)
800010aa: 7479         	lui	s0, 0xffffe
800010ac: 5f65         	li	t5, -0x7
800010ae: 7366666f     	jal	a2, 0x800677e4 <timer+0x662a4>
800010b2: 7465         	lui	s0, 0xffff9
800010b4: 6300         	ld	s0, 0x0(a4)
800010b6: 732e         	ld	t1, 0xe8(sp)
800010b8: 6168         	ld	a0, 0xc0(a0)
800010ba: 6570         	ld	a2, 0xc8(a0)
800010bc: 005d305b     	<unknown>
800010c0: 79622e63     	<unknown>
800010c4: 6574         	ld	a3, 0xc8(a0)
800010c6: 6f5f 6666 6573       	<unknown>
800010cc: 0074         	addi	a3, sp, 0xc

Disassembly of section .eh_frame:

00000000800010d0 <.eh_frame>:
800010d0: 0010         	<unknown>
800010d2: 0000         	unimp
800010d4: 0000         	unimp
800010d6: 0000         	unimp
800010d8: 7a01         	lui	s4, 0xfffe0
800010da: 0052         	c.slli	zero, 0x14
800010dc: 7801         	lui	a6, 0xfffe0
800010de: 0101         	c.addi	sp, 0x0
800010e0: 00020c1b     	sext.w	s8, tp
800010e4: 0118         	addi	a4, sp, 0x80
800010e6: 0000         	unimp
800010e8: 0018         	<unknown>
800010ea: 0000         	unimp
800010ec: f024         	sd	s1, 0x60(s0)
800010ee: ff           	<unknown>
800010ef: 000bd4ff 0e440000 01814410 023c030a 000e44c1 	<unknown>
80001103: 0b44         	addi	s1, sp, 0x194
80001105: 020a         	slli	tp, tp, 0x2
80001107: c14c         	sw	a1, 0x4(a0)
80001109: 0e44         	addi	s1, sp, 0x314
8000110b: 4400         	lw	s0, 0x8(s0)
8000110d: 4c020a0b     	<unknown>
80001111: 44c1         	li	s1, 0x10
80001113: 000e         	c.slli	zero, 0x3
80001115: 0b44         	addi	s1, sp, 0x194
80001117: 020a         	slli	tp, tp, 0x2
80001119: c14c         	sw	a1, 0x4(a0)
8000111b: 0e44         	addi	s1, sp, 0x314
8000111d: 4400         	lw	s0, 0x8(s0)
8000111f: 4c020a0b     	<unknown>
80001123: 44c1         	li	s1, 0x10
80001125: 000e         	c.slli	zero, 0x3
80001127: 0b44         	addi	s1, sp, 0x194
80001129: 020a         	slli	tp, tp, 0x2
8000112b: c144         	sw	s1, 0x4(a0)
8000112d: 0e44         	addi	s1, sp, 0x314
8000112f: 4400         	lw	s0, 0x8(s0)
80001131: 4c020a0b     	<unknown>
80001135: 44c1         	li	s1, 0x10
80001137: 000e         	c.slli	zero, 0x3
80001139: 0b44         	addi	s1, sp, 0x194
8000113b: 020a         	slli	tp, tp, 0x2
8000113d: c14c         	sw	a1, 0x4(a0)
8000113f: 0e44         	addi	s1, sp, 0x314
80001141: 4400         	lw	s0, 0x8(s0)
80001143: 4c020a0b     	<unknown>
80001147: 44c1         	li	s1, 0x10
80001149: 000e         	c.slli	zero, 0x3
8000114b: 0b44         	addi	s1, sp, 0x194
8000114d: 020a         	slli	tp, tp, 0x2
8000114f: c14c         	sw	a1, 0x4(a0)
80001151: 0e44         	addi	s1, sp, 0x314
80001153: 4400         	lw	s0, 0x8(s0)
80001155: 4c020a0b     	<unknown>
80001159: 44c1         	li	s1, 0x10
8000115b: 000e         	c.slli	zero, 0x3
8000115d: 0b44         	addi	s1, sp, 0x194
8000115f: 020a         	slli	tp, tp, 0x2
80001161: c180         	sw	s0, 0x0(a1)
80001163: 0e44         	addi	s1, sp, 0x314
80001165: 4400         	lw	s0, 0x8(s0)
80001167: 4c020a0b     	<unknown>
8000116b: 44c1         	li	s1, 0x10
8000116d: 000e         	c.slli	zero, 0x3
8000116f: 0b44         	addi	s1, sp, 0x194
80001171: 020a         	slli	tp, tp, 0x2
80001173: c14c         	sw	a1, 0x4(a0)
80001175: 0e44         	addi	s1, sp, 0x314
80001177: 4400         	lw	s0, 0x8(s0)
80001179: 4c020a0b     	<unknown>
8000117d: 44c1         	li	s1, 0x10
8000117f: 000e         	c.slli	zero, 0x3
80001181: 0b44         	addi	s1, sp, 0x194
80001183: 020a         	slli	tp, tp, 0x2
80001185: c14c         	sw	a1, 0x4(a0)
80001187: 0e44         	addi	s1, sp, 0x314
80001189: 4400         	lw	s0, 0x8(s0)
8000118b: 4c020a0b     	<unknown>
8000118f: 44c1         	li	s1, 0x10
80001191: 000e         	c.slli	zero, 0x3
80001193: 0b44         	addi	s1, sp, 0x194
80001195: 020a         	slli	tp, tp, 0x2
80001197: c180         	sw	s0, 0x0(a1)
80001199: 0e44         	addi	s1, sp, 0x314
8000119b: 4400         	lw	s0, 0x8(s0)
8000119d: 48020a0b     	<unknown>
800011a1: 44c1         	li	s1, 0x10
800011a3: 000e         	c.slli	zero, 0x3
800011a5: 0b44         	addi	s1, sp, 0x194
800011a7: 020a         	slli	tp, tp, 0x2
800011a9: c14c         	sw	a1, 0x4(a0)
800011ab: 0e44         	addi	s1, sp, 0x314
800011ad: 4400         	lw	s0, 0x8(s0)
800011af: 4c020a0b     	<unknown>
800011b3: 44c1         	li	s1, 0x10
800011b5: 000e         	c.slli	zero, 0x3
800011b7: 0b44         	addi	s1, sp, 0x194
800011b9: 020a         	slli	tp, tp, 0x2
800011bb: c14c         	sw	a1, 0x4(a0)
800011bd: 0e44         	addi	s1, sp, 0x314
800011bf: 4400         	lw	s0, 0x8(s0)
800011c1: 4c020a0b     	<unknown>
800011c5: 44c1         	li	s1, 0x10
800011c7: 000e         	c.slli	zero, 0x3
800011c9: 0b44         	addi	s1, sp, 0x194
800011cb: 020a         	slli	tp, tp, 0x2
800011cd: c14c         	sw	a1, 0x4(a0)
800011cf: 0e44         	addi	s1, sp, 0x314
800011d1: 4400         	lw	s0, 0x8(s0)
800011d3: 48020a0b     	<unknown>
800011d7: 44c1         	li	s1, 0x10
800011d9: 000e         	c.slli	zero, 0x3
800011db: 0b44         	addi	s1, sp, 0x194
800011dd: 020a         	slli	tp, tp, 0x2
800011df: c14c         	sw	a1, 0x4(a0)
800011e1: 0e44         	addi	s1, sp, 0x314
800011e3: 4400         	lw	s0, 0x8(s0)
800011e5: 4c020a0b     	<unknown>
800011e9: 44c1         	li	s1, 0x10
800011eb: 000e         	c.slli	zero, 0x3
800011ed: 0b44         	addi	s1, sp, 0x194
800011ef: 020a         	slli	tp, tp, 0x2
800011f1: c14c         	sw	a1, 0x4(a0)
800011f3: 0e44         	addi	s1, sp, 0x314
800011f5: 4400         	lw	s0, 0x8(s0)
800011f7: c14c020b     	<unknown>
800011fb: 0e44         	addi	s1, sp, 0x314
800011fd: 0000         	unimp
800011ff: 1800         	addi	s0, sp, 0x30
80001201: 0000         	unimp
80001203: 3400         	fld	fs0, 0x28(s0)
80001205: 0001         	nop
80001207: dc00         	sw	s0, 0x38(s0)
80001209: fffa         	sd	t5, 0x1f8(sp)
8000120b: 24ff 0000 0000 0e42 4240 0181 c15c   	<unknown>
80001219: 0e42         	slli	t3, t3, 0x10
8000121b: 1800         	addi	s0, sp, 0x30
8000121d: 0000         	unimp
8000121f: 5000         	lw	s0, 0x20(s0)
80001221: 0001         	nop
80001223: e400         	sd	s0, 0x8(s0)
80001225: fffa         	sd	t5, 0x1f8(sp)
80001227: 40ff 0000 0000 0e42 4270 0181 c178 0e42 1c00 	<unknown>
80001239: 0000         	unimp
8000123b: 6c00         	ld	s0, 0x18(s0)
8000123d: 0001         	nop
8000123f: 0800         	addi	s0, sp, 0x10
80001241: 3cfffffb     	<unknown>
80001245: 0000         	unimp
80001247: 0000         	unimp
80001249: 0e44         	addi	s1, sp, 0x314
8000124b: 4810         	lw	a2, 0x10(s0)
8000124d: 0181         	c.addi	gp, 0x0
8000124f: 0288         	addi	a0, sp, 0x140
80001251: c168         	sw	a0, 0x44(a0)
80001253: 44c8         	lw	a0, 0xc(s1)
80001255: 000e         	c.slli	zero, 0x3
80001257: 0000         	unimp
80001259: 0000         	unimp
8000125b: 00           	<unknown>

Disassembly of section .l2:

0000000080001280 <c_data>:
		...

00000000800012c0 <shape_64>:
800012c0: 0040         	addi	s0, sp, 0x4
		...
800012fe: 0000         	unimp

0000000080001300 <shape_1>:
80001300: 0001         	nop
		...
8000133e: 0000         	unimp

0000000080001340 <a_data>:
80001340: 0000         	unimp
80001342: 0000         	unimp
80001344: 0000         	unimp
80001346: 3f80         	fld	fs0, 0x38(a5)
80001348: 0000         	unimp
8000134a: 4000         	lw	s0, 0x0(s0)
8000134c: 0000         	unimp
8000134e: 4040         	lw	s0, 0x4(s0)
80001350: 0000         	unimp
80001352: 4080         	lw	s0, 0x0(s1)
80001354: 0000         	unimp
80001356: 40a0         	lw	s0, 0x40(s1)
80001358: 0000         	unimp
8000135a: 40c0         	lw	s0, 0x4(s1)
8000135c: 0000         	unimp
8000135e: 40e0         	lw	s0, 0x44(s1)
80001360: 0000         	unimp
80001362: 4100         	lw	s0, 0x0(a0)
80001364: 0000         	unimp
80001366: 4110         	lw	a2, 0x0(a0)
80001368: 0000         	unimp
8000136a: 4120         	lw	s0, 0x40(a0)
8000136c: 0000         	unimp
8000136e: 4130         	lw	a2, 0x40(a0)
80001370: 0000         	unimp
80001372: 4140         	lw	s0, 0x4(a0)
80001374: 0000         	unimp
80001376: 4150         	lw	a2, 0x4(a0)
80001378: 0000         	unimp
8000137a: 4160         	lw	s0, 0x44(a0)
8000137c: 0000         	unimp
8000137e: 4170         	lw	a2, 0x44(a0)
80001380: 0000         	unimp
80001382: 4180         	lw	s0, 0x0(a1)
80001384: 0000         	unimp
80001386: 4188         	lw	a0, 0x0(a1)
80001388: 0000         	unimp
8000138a: 4190         	lw	a2, 0x0(a1)
8000138c: 0000         	unimp
8000138e: 4198         	lw	a4, 0x0(a1)
80001390: 0000         	unimp
80001392: 41a0         	lw	s0, 0x40(a1)
80001394: 0000         	unimp
80001396: 41a8         	lw	a0, 0x40(a1)
80001398: 0000         	unimp
8000139a: 41b0         	lw	a2, 0x40(a1)
8000139c: 0000         	unimp
8000139e: 41b8         	lw	a4, 0x40(a1)
800013a0: 0000         	unimp
800013a2: 41c0         	lw	s0, 0x4(a1)
800013a4: 0000         	unimp
800013a6: 41c8         	lw	a0, 0x4(a1)
800013a8: 0000         	unimp
800013aa: 41d0         	lw	a2, 0x4(a1)
800013ac: 0000         	unimp
800013ae: 41d8         	lw	a4, 0x4(a1)
800013b0: 0000         	unimp
800013b2: 41e0         	lw	s0, 0x44(a1)
800013b4: 0000         	unimp
800013b6: 41e8         	lw	a0, 0x44(a1)
800013b8: 0000         	unimp
800013ba: 41f0         	lw	a2, 0x44(a1)
800013bc: 0000         	unimp
800013be: 41f8         	lw	a4, 0x44(a1)
800013c0: 0000         	unimp
800013c2: 4200         	lw	s0, 0x0(a2)
800013c4: 0000         	unimp
800013c6: 4204         	lw	s1, 0x0(a2)
800013c8: 0000         	unimp
800013ca: 4208         	lw	a0, 0x0(a2)
800013cc: 0000         	unimp
800013ce: 420c         	lw	a1, 0x0(a2)
800013d0: 0000         	unimp
800013d2: 4210         	lw	a2, 0x0(a2)
800013d4: 0000         	unimp
800013d6: 4214         	lw	a3, 0x0(a2)
800013d8: 0000         	unimp
800013da: 4218         	lw	a4, 0x0(a2)
800013dc: 0000         	unimp
800013de: 421c         	lw	a5, 0x0(a2)
800013e0: 0000         	unimp
800013e2: 4220         	lw	s0, 0x40(a2)
800013e4: 0000         	unimp
800013e6: 4224         	lw	s1, 0x40(a2)
800013e8: 0000         	unimp
800013ea: 4228         	lw	a0, 0x40(a2)
800013ec: 0000         	unimp
800013ee: 422c         	lw	a1, 0x40(a2)
800013f0: 0000         	unimp
800013f2: 4230         	lw	a2, 0x40(a2)
800013f4: 0000         	unimp
800013f6: 4234         	lw	a3, 0x40(a2)
800013f8: 0000         	unimp
800013fa: 4238         	lw	a4, 0x40(a2)
800013fc: 0000         	unimp
800013fe: 423c         	lw	a5, 0x40(a2)
80001400: 0000         	unimp
80001402: 4240         	lw	s0, 0x4(a2)
80001404: 0000         	unimp
80001406: 4244         	lw	s1, 0x4(a2)
80001408: 0000         	unimp
8000140a: 4248         	lw	a0, 0x4(a2)
8000140c: 0000         	unimp
8000140e: 424c         	lw	a1, 0x4(a2)
80001410: 0000         	unimp
80001412: 4250         	lw	a2, 0x4(a2)
80001414: 0000         	unimp
80001416: 4254         	lw	a3, 0x4(a2)
80001418: 0000         	unimp
8000141a: 4258         	lw	a4, 0x4(a2)
8000141c: 0000         	unimp
8000141e: 425c         	lw	a5, 0x4(a2)
80001420: 0000         	unimp
80001422: 4260         	lw	s0, 0x44(a2)
80001424: 0000         	unimp
80001426: 4264         	lw	s1, 0x44(a2)
80001428: 0000         	unimp
8000142a: 4268         	lw	a0, 0x44(a2)
8000142c: 0000         	unimp
8000142e: 426c         	lw	a1, 0x44(a2)
80001430: 0000         	unimp
80001432: 4270         	lw	a2, 0x44(a2)
80001434: 0000         	unimp
80001436: 4274         	lw	a3, 0x44(a2)
80001438: 0000         	unimp
8000143a: 4278         	lw	a4, 0x44(a2)
8000143c: 0000         	unimp
8000143e: 427c         	lw	a5, 0x44(a2)

0000000080001440 <b_data>:
80001440: 0000         	unimp
80001442: 3f80         	fld	fs0, 0x38(a5)
80001444: 0000         	unimp
80001446: 3f80         	fld	fs0, 0x38(a5)
80001448: 0000         	unimp
8000144a: 3f80         	fld	fs0, 0x38(a5)
8000144c: 0000         	unimp
8000144e: 3f80         	fld	fs0, 0x38(a5)
80001450: 0000         	unimp
80001452: 3f80         	fld	fs0, 0x38(a5)
80001454: 0000         	unimp
80001456: 3f80         	fld	fs0, 0x38(a5)
80001458: 0000         	unimp
8000145a: 3f80         	fld	fs0, 0x38(a5)
8000145c: 0000         	unimp
8000145e: 3f80         	fld	fs0, 0x38(a5)
80001460: 0000         	unimp
80001462: 3f80         	fld	fs0, 0x38(a5)
80001464: 0000         	unimp
80001466: 3f80         	fld	fs0, 0x38(a5)
80001468: 0000         	unimp
8000146a: 3f80         	fld	fs0, 0x38(a5)
8000146c: 0000         	unimp
8000146e: 3f80         	fld	fs0, 0x38(a5)
80001470: 0000         	unimp
80001472: 3f80         	fld	fs0, 0x38(a5)
80001474: 0000         	unimp
80001476: 3f80         	fld	fs0, 0x38(a5)
80001478: 0000         	unimp
8000147a: 3f80         	fld	fs0, 0x38(a5)
8000147c: 0000         	unimp
8000147e: 3f80         	fld	fs0, 0x38(a5)
80001480: 0000         	unimp
80001482: 3f80         	fld	fs0, 0x38(a5)
80001484: 0000         	unimp
80001486: 3f80         	fld	fs0, 0x38(a5)
80001488: 0000         	unimp
8000148a: 3f80         	fld	fs0, 0x38(a5)
8000148c: 0000         	unimp
8000148e: 3f80         	fld	fs0, 0x38(a5)
80001490: 0000         	unimp
80001492: 3f80         	fld	fs0, 0x38(a5)
80001494: 0000         	unimp
80001496: 3f80         	fld	fs0, 0x38(a5)
80001498: 0000         	unimp
8000149a: 3f80         	fld	fs0, 0x38(a5)
8000149c: 0000         	unimp
8000149e: 3f80         	fld	fs0, 0x38(a5)
800014a0: 0000         	unimp
800014a2: 3f80         	fld	fs0, 0x38(a5)
800014a4: 0000         	unimp
800014a6: 3f80         	fld	fs0, 0x38(a5)
800014a8: 0000         	unimp
800014aa: 3f80         	fld	fs0, 0x38(a5)
800014ac: 0000         	unimp
800014ae: 3f80         	fld	fs0, 0x38(a5)
800014b0: 0000         	unimp
800014b2: 3f80         	fld	fs0, 0x38(a5)
800014b4: 0000         	unimp
800014b6: 3f80         	fld	fs0, 0x38(a5)
800014b8: 0000         	unimp
800014ba: 3f80         	fld	fs0, 0x38(a5)
800014bc: 0000         	unimp
800014be: 3f80         	fld	fs0, 0x38(a5)
800014c0: 0000         	unimp
800014c2: 3f80         	fld	fs0, 0x38(a5)
800014c4: 0000         	unimp
800014c6: 3f80         	fld	fs0, 0x38(a5)
800014c8: 0000         	unimp
800014ca: 3f80         	fld	fs0, 0x38(a5)
800014cc: 0000         	unimp
800014ce: 3f80         	fld	fs0, 0x38(a5)
800014d0: 0000         	unimp
800014d2: 3f80         	fld	fs0, 0x38(a5)
800014d4: 0000         	unimp
800014d6: 3f80         	fld	fs0, 0x38(a5)
800014d8: 0000         	unimp
800014da: 3f80         	fld	fs0, 0x38(a5)
800014dc: 0000         	unimp
800014de: 3f80         	fld	fs0, 0x38(a5)
800014e0: 0000         	unimp
800014e2: 3f80         	fld	fs0, 0x38(a5)
800014e4: 0000         	unimp
800014e6: 3f80         	fld	fs0, 0x38(a5)
800014e8: 0000         	unimp
800014ea: 3f80         	fld	fs0, 0x38(a5)
800014ec: 0000         	unimp
800014ee: 3f80         	fld	fs0, 0x38(a5)
800014f0: 0000         	unimp
800014f2: 3f80         	fld	fs0, 0x38(a5)
800014f4: 0000         	unimp
800014f6: 3f80         	fld	fs0, 0x38(a5)
800014f8: 0000         	unimp
800014fa: 3f80         	fld	fs0, 0x38(a5)
800014fc: 0000         	unimp
800014fe: 3f80         	fld	fs0, 0x38(a5)
80001500: 0000         	unimp
80001502: 3f80         	fld	fs0, 0x38(a5)
80001504: 0000         	unimp
80001506: 3f80         	fld	fs0, 0x38(a5)
80001508: 0000         	unimp
8000150a: 3f80         	fld	fs0, 0x38(a5)
8000150c: 0000         	unimp
8000150e: 3f80         	fld	fs0, 0x38(a5)
80001510: 0000         	unimp
80001512: 3f80         	fld	fs0, 0x38(a5)
80001514: 0000         	unimp
80001516: 3f80         	fld	fs0, 0x38(a5)
80001518: 0000         	unimp
8000151a: 3f80         	fld	fs0, 0x38(a5)
8000151c: 0000         	unimp
8000151e: 3f80         	fld	fs0, 0x38(a5)
80001520: 0000         	unimp
80001522: 3f80         	fld	fs0, 0x38(a5)
80001524: 0000         	unimp
80001526: 3f80         	fld	fs0, 0x38(a5)
80001528: 0000         	unimp
8000152a: 3f80         	fld	fs0, 0x38(a5)
8000152c: 0000         	unimp
8000152e: 3f80         	fld	fs0, 0x38(a5)
80001530: 0000         	unimp
80001532: 3f80         	fld	fs0, 0x38(a5)
80001534: 0000         	unimp
80001536: 3f80         	fld	fs0, 0x38(a5)
80001538: 0000         	unimp
8000153a: 3f80         	fld	fs0, 0x38(a5)
8000153c: 0000         	unimp
8000153e: 3f80         	fld	fs0, 0x38(a5)

0000000080001540 <timer>:
		...

Disassembly of section .comment:

0000000000000000 <.comment>:
       0: 4c00         	lw	s0, 0x18(s0)
       2: 6e69         	lui	t3, 0x1a
       4: 3a72656b     	<unknown>
       8: 4c20         	lw	s0, 0x58(s0)
       a: 444c         	lw	a1, 0xc(s0)
       c: 3220         	fld	fs0, 0x60(a2)
       e: 2e30         	fld	fa2, 0x58(a2)
      10: 2e31         	addiw	t3, t3, 0xc
      12: 2030         	fld	fa2, 0x40(s0)
      14: 6828         	ld	a0, 0x50(s0)
      16: 7474         	ld	a3, 0xe8(s0)
      18: 7370         	ld	a2, 0xe0(a4)
      1a: 2f3a         	fld	ft10, 0x188(sp)
      1c: 7469672f     	<unknown>
      20: 7568         	ld	a0, 0xe8(a0)
      22: 2e62         	fld	ft8, 0x18(sp)
      24: 2f6d6f63     	bltu	s10, s6, 0x322 <.comment+0x322>
      28: 6c6c         	ld	a1, 0xd8(s0)
      2a: 6d76         	ld	s10, 0x158(sp)
      2c: 766c6c2f     	<unknown>
      30: 2d6d         	addiw	s10, s10, 0x1b
      32: 7270         	ld	a2, 0xe0(a2)
      34: 63656a6f     	jal	s4, 0x5666a <.comment+0x5666a>
      38: 2e74         	fld	fa3, 0xd8(a2)
      3a: 20746967     	<unknown>
      3e: 3432         	fld	fs0, 0x128(sp)
      40: 3361         	addiw	t1, t1, -0x8
      42: 6430         	ld	a2, 0x48(s0)
      44: 6161         	addi	sp, sp, 0x50
      46: 3561         	addiw	a0, a0, -0x8
      48: 3935         	addiw	s2, s2, -0x13
      4a: 3238         	fld	fa4, 0x60(a2)
      4c: 6139         	addi	sp, sp, 0x1c0
      4e: 3064         	fld	fs1, 0xe0(s0)
      50: 32663937     	lui	s2, 0x32663
      54: 6666         	ld	a2, 0x58(sp)
      56: 33376637     	lui	a2, 0x33376
      5a: 6265         	lui	tp, 0x19
      5c: 6534         	ld	a3, 0x48(a0)
      5e: 3831         	addiw	a6, a6, -0x14
      60: 3930         	fld	fa2, 0x70(a0)
      62: 6635         	lui	a2, 0xd
      64: 3838         	fld	fa4, 0x70(s0)
      66: 0029         	c.nop	0xa
      68: 6e616c63     	bltu	sp, t1, 0x760 <.comment+0x760>
      6c: 65762067     	<unknown>
      70: 7372         	ld	t1, 0x138(sp)
      72: 6f69         	lui	t5, 0x1a
      74: 206e         	fld	ft0, 0xd8(sp)
      76: 3032         	fld	ft0, 0x128(sp)
      78: 312e         	fld	ft2, 0xe8(sp)
      7a: 302e         	fld	ft0, 0xe8(sp)
      7c: 2820         	fld	fs0, 0x50(s0)
      7e: 7468         	ld	a0, 0xe8(s0)
      80: 7074         	ld	a3, 0xe0(s0)
      82: 2f2f3a73     	csrrc	s4, 0x2f2, t5
      86: 68746967     	<unknown>
      8a: 6275         	lui	tp, 0x1d
      8c: 632e         	ld	t1, 0xc8(sp)
      8e: 6c2f6d6f     	jal	s10, 0xf6750 <.comment+0xf6750>
      92: 766c         	ld	a1, 0xe8(a2)
      94: 2f6d         	addiw	t5, t5, 0x1b
      96: 6c6c         	ld	a1, 0xd8(s0)
      98: 6d76         	ld	s10, 0x158(sp)
      9a: 702d         	c.lui	zero, -0x15
      9c: 6f72         	ld	t5, 0x118(sp)
      9e: 656a         	ld	a0, 0x98(sp)
      a0: 672e7463     	bgeu	t3, s2, 0x708 <.comment+0x708>
      a4: 7469         	lui	s0, 0xffffa
      a6: 3220         	fld	fs0, 0x60(a2)
      a8: 6134         	ld	a3, 0x40(a0)
      aa: 61643033     	<unknown>
      ae: 6161         	addi	sp, sp, 0x50
      b0: 3535         	addiw	a0, a0, -0x13
      b2: 3839         	addiw	a6, a6, -0x12
      b4: 3932         	fld	fs2, 0x128(sp)
      b6: 6461         	lui	s0, 0x18
      b8: 3730         	fld	fa2, 0x68(a4)
      ba: 6639         	lui	a2, 0xe
      bc: 6632         	ld	a2, 0x108(sp)
      be: 3766         	fld	fa4, 0x78(sp)
      c0: 3766         	fld	fa4, 0x78(sp)
      c2: 34626533     	<unknown>
      c6: 3165         	addiw	sp, sp, -0x7
      c8: 3038         	fld	fa4, 0x60(s0)
      ca: 3539         	addiw	a0, a0, -0x12
      cc: 3866         	fld	fa6, 0x78(sp)
      ce: 2938         	fld	fa4, 0x50(a0)
      d0: 00           	<unknown>

Disassembly of section .debug_loc:

0000000000000000 <.debug_loc>:
       0: ff           	<unknown>
       1: ff           	<unknown>
       2: ff           	<unknown>
       3: ff           	<unknown>
       4: ff           	<unknown>
       5: ff           	<unknown>
       6: ff           	<unknown>
       7: 000110ff 00000080 00000000   	<unknown>
      13: 0000         	unimp
      15: 0000         	unimp
      17: 4800         	lw	s0, 0x10(s0)
      19: 0001         	nop
      1b: 0000         	unimp
      1d: 0000         	unimp
      1f: 0100         	addi	s0, sp, 0x80
      21: 5b00         	lw	s0, 0x30(a4)
      23: 024c         	addi	a1, sp, 0x104
      25: 0000         	unimp
      27: 0000         	unimp
      29: 0000         	unimp
      2b: 0254         	addi	a3, sp, 0x104
      2d: 0000         	unimp
      2f: 0000         	unimp
      31: 0000         	unimp
      33: 0001         	nop
      35: 0002a05b     	<unknown>
      39: 0000         	unimp
      3b: 0000         	unimp
      3d: a800         	fsd	fs0, 0x10(s0)
      3f: 0002         	c.slli64	zero
      41: 0000         	unimp
      43: 0000         	unimp
      45: 0100         	addi	s0, sp, 0x80
      47: 5b00         	lw	s0, 0x30(a4)
      49: 02f4         	addi	a3, sp, 0x14c
      4b: 0000         	unimp
      4d: 0000         	unimp
      4f: 0000         	unimp
      51: 02fc         	addi	a5, sp, 0x14c
      53: 0000         	unimp
      55: 0000         	unimp
      57: 0000         	unimp
      59: 0001         	nop
      5b: 0003485b     	<unknown>
      5f: 0000         	unimp
      61: 0000         	unimp
      63: 5000         	lw	s0, 0x20(s0)
      65: 00000003     	lb	zero, 0x0(zero)
      69: 0000         	unimp
      6b: 0100         	addi	s0, sp, 0x80
      6d: 5b00         	lw	s0, 0x30(a4)
      6f: 039c         	addi	a5, sp, 0x1c0
      71: 0000         	unimp
      73: 0000         	unimp
      75: 0000         	unimp
      77: 03a4         	addi	s1, sp, 0x1c8
      79: 0000         	unimp
      7b: 0000         	unimp
      7d: 0000         	unimp
      7f: 0001         	nop
      81: 0003e85b     	<unknown>
      85: 0000         	unimp
      87: 0000         	unimp
      89: f000         	sd	s0, 0x20(s0)
      8b: 00000003     	lb	zero, 0x0(zero)
      8f: 0000         	unimp
      91: 0100         	addi	s0, sp, 0x80
      93: 5b00         	lw	s0, 0x30(a4)
      95: 043c         	addi	a5, sp, 0x208
      97: 0000         	unimp
      99: 0000         	unimp
      9b: 0000         	unimp
      9d: 0444         	addi	s1, sp, 0x204
      9f: 0000         	unimp
      a1: 0000         	unimp
      a3: 0000         	unimp
      a5: 0001         	nop
      a7: 0004905b     	<unknown>
      ab: 0000         	unimp
      ad: 0000         	unimp
      af: 9800         	<unknown>
      b1: 0004         	<unknown>
      b3: 0000         	unimp
      b5: 0000         	unimp
      b7: 0100         	addi	s0, sp, 0x80
      b9: 5b00         	lw	s0, 0x30(a4)
      bb: 04e4         	addi	s1, sp, 0x24c
      bd: 0000         	unimp
      bf: 0000         	unimp
      c1: 0000         	unimp
      c3: 04ec         	addi	a1, sp, 0x24c
      c5: 0000         	unimp
      c7: 0000         	unimp
      c9: 0000         	unimp
      cb: 0001         	nop
      cd: 0005385b     	<unknown>
      d1: 0000         	unimp
      d3: 0000         	unimp
      d5: 4000         	lw	s0, 0x0(s0)
      d7: 0005         	c.nop	0x1
      d9: 0000         	unimp
      db: 0000         	unimp
      dd: 0100         	addi	s0, sp, 0x80
      df: 5b00         	lw	s0, 0x30(a4)
      e1: 058c         	addi	a1, sp, 0x2c0
      e3: 0000         	unimp
      e5: 0000         	unimp
      e7: 0000         	unimp
      e9: 0594         	addi	a3, sp, 0x2c0
      eb: 0000         	unimp
      ed: 0000         	unimp
      ef: 0000         	unimp
      f1: 0001         	nop
      f3: 0005c05b     	<unknown>
      f7: 0000         	unimp
      f9: 0000         	unimp
      fb: c800         	sw	s0, 0x10(s0)
      fd: 0005         	c.nop	0x1
      ff: 0000         	unimp
     101: 0000         	unimp
     103: 0100         	addi	s0, sp, 0x80
     105: 5b00         	lw	s0, 0x30(a4)
     107: 0614         	addi	a3, sp, 0x300
     109: 0000         	unimp
     10b: 0000         	unimp
     10d: 0000         	unimp
     10f: 061c         	addi	a5, sp, 0x300
     111: 0000         	unimp
     113: 0000         	unimp
     115: 0000         	unimp
     117: 0001         	nop
     119: 0006685b     	<unknown>
     11d: 0000         	unimp
     11f: 0000         	unimp
     121: 7000         	ld	s0, 0x20(s0)
     123: 0006         	c.slli	zero, 0x1
     125: 0000         	unimp
     127: 0000         	unimp
     129: 0100         	addi	s0, sp, 0x80
     12b: 5b00         	lw	s0, 0x30(a4)
		...
     13d: ff           	<unknown>
     13e: ff           	<unknown>
     13f: ff           	<unknown>
     140: ff           	<unknown>
     141: ff           	<unknown>
     142: ff           	<unknown>
     143: ff           	<unknown>
     144: 000110ff 00000080 00000000   	<unknown>
     150: 0000         	unimp
     152: 0000         	unimp
     154: 0c00         	addi	s0, sp, 0x210
     156: 0000         	unimp
     158: 0000         	unimp
     15a: 0000         	unimp
     15c: 0100         	addi	s0, sp, 0x80
     15e: 5c00         	lw	s0, 0x38(s0)
		...
     170: ff           	<unknown>
     171: ff           	<unknown>
     172: ff           	<unknown>
     173: ff           	<unknown>
     174: ff           	<unknown>
     175: ff           	<unknown>
     176: ff           	<unknown>
     177: 000110ff 00000080 00001c00   	<unknown>
     183: 0000         	unimp
     185: 0000         	unimp
     187: 9000         	<unknown>
     189: 0000         	unimp
     18b: 0000         	unimp
     18d: 0000         	unimp
     18f: 0100         	addi	s0, sp, 0x80
     191: 5d00         	lw	s0, 0x38(a0)
     193: 024c         	addi	a1, sp, 0x104
     195: 0000         	unimp
     197: 0000         	unimp
     199: 0000         	unimp
     19b: 0258         	addi	a4, sp, 0x104
     19d: 0000         	unimp
     19f: 0000         	unimp
     1a1: 0000         	unimp
     1a3: 0001         	nop
     1a5: a05d         	j	0x24b <.debug_loc+0x24b>
     1a7: 0002         	c.slli64	zero
     1a9: 0000         	unimp
     1ab: 0000         	unimp
     1ad: ac00         	fsd	fs0, 0x18(s0)
     1af: 0002         	c.slli64	zero
     1b1: 0000         	unimp
     1b3: 0000         	unimp
     1b5: 0100         	addi	s0, sp, 0x80
     1b7: 5d00         	lw	s0, 0x38(a0)
     1b9: 02f4         	addi	a3, sp, 0x14c
     1bb: 0000         	unimp
     1bd: 0000         	unimp
     1bf: 0000         	unimp
     1c1: 0300         	addi	s0, sp, 0x180
     1c3: 0000         	unimp
     1c5: 0000         	unimp
     1c7: 0000         	unimp
     1c9: 0001         	nop
     1cb: e85d         	bnez	s0, 0x281 <.debug_loc+0x281>
     1cd: 00000003     	lb	zero, 0x0(zero)
     1d1: 0000         	unimp
     1d3: f400         	sd	s0, 0x28(s0)
     1d5: 00000003     	lb	zero, 0x0(zero)
     1d9: 0000         	unimp
     1db: 0100         	addi	s0, sp, 0x80
     1dd: 5d00         	lw	s0, 0x38(a0)
		...
     1ef: ff           	<unknown>
     1f0: ff           	<unknown>
     1f1: ff           	<unknown>
     1f2: ff           	<unknown>
     1f3: ff           	<unknown>
     1f4: ff           	<unknown>
     1f5: ff           	<unknown>
     1f6: 000110ff 00000080 00004000   	<unknown>
     202: 0000         	unimp
     204: 0000         	unimp
     206: e000         	sd	s0, 0x0(s0)
     208: 0000         	unimp
     20a: 0000         	unimp
     20c: 0000         	unimp
     20e: 0100         	addi	s0, sp, 0x80
     210: 5c00         	lw	s0, 0x38(s0)
     212: 02a0         	addi	s0, sp, 0x148
     214: 0000         	unimp
     216: 0000         	unimp
     218: 0000         	unimp
     21a: 02c4         	addi	s1, sp, 0x144
     21c: 0000         	unimp
     21e: 0000         	unimp
     220: 0000         	unimp
     222: 0001         	nop
     224: f45c         	sd	a5, 0xa8(s0)
     226: 0002         	c.slli64	zero
     228: 0000         	unimp
     22a: 0000         	unimp
     22c: 1800         	addi	s0, sp, 0x30
     22e: 00000003     	lb	zero, 0x0(zero)
     232: 0000         	unimp
     234: 0100         	addi	s0, sp, 0x80
     236: 5c00         	lw	s0, 0x38(s0)
     238: 03e8         	addi	a0, sp, 0x1cc
     23a: 0000         	unimp
     23c: 0000         	unimp
     23e: 0000         	unimp
     240: 040c         	addi	a1, sp, 0x200
     242: 0000         	unimp
     244: 0000         	unimp
     246: 0000         	unimp
     248: 0001         	nop
     24a: 3c5c         	fld	fa5, 0xb8(s0)
     24c: 0004         	<unknown>
     24e: 0000         	unimp
     250: 0000         	unimp
     252: 6000         	ld	s0, 0x0(s0)
     254: 0004         	<unknown>
     256: 0000         	unimp
     258: 0000         	unimp
     25a: 0100         	addi	s0, sp, 0x80
     25c: 5c00         	lw	s0, 0x38(s0)
     25e: 0490         	addi	a2, sp, 0x240
     260: 0000         	unimp
     262: 0000         	unimp
     264: 0000         	unimp
     266: 04b4         	addi	a3, sp, 0x248
     268: 0000         	unimp
     26a: 0000         	unimp
     26c: 0000         	unimp
     26e: 0001         	nop
     270: e45c         	sd	a5, 0x88(s0)
     272: 0004         	<unknown>
     274: 0000         	unimp
     276: 0000         	unimp
     278: 0800         	addi	s0, sp, 0x10
     27a: 0005         	c.nop	0x1
     27c: 0000         	unimp
     27e: 0000         	unimp
     280: 0100         	addi	s0, sp, 0x80
     282: 5c00         	lw	s0, 0x38(s0)
     284: 0538         	addi	a4, sp, 0x288
     286: 0000         	unimp
     288: 0000         	unimp
     28a: 0000         	unimp
     28c: 055c         	addi	a5, sp, 0x284
     28e: 0000         	unimp
     290: 0000         	unimp
     292: 0000         	unimp
     294: 0001         	nop
     296: 005c         	addi	a5, sp, 0x4
		...
     2a4: 0000         	unimp
     2a6: ff00         	sd	s0, 0x38(a4)
     2a8: ff           	<unknown>
     2a9: ff           	<unknown>
     2aa: ff           	<unknown>
     2ab: ff           	<unknown>
     2ac: ff           	<unknown>
     2ad: ff           	<unknown>
     2ae: 000110ff 00000080 0000a000   	<unknown>
     2ba: 0000         	unimp
     2bc: 0000         	unimp
     2be: 0000         	unimp
     2c0: 0002         	c.slli64	zero
     2c2: 0000         	unimp
     2c4: 0000         	unimp
     2c6: 0200         	addi	s0, sp, 0x100
     2c8: 7d00         	ld	s0, 0x38(a0)
     2ca: 3c00         	fld	fs0, 0x38(s0)
     2cc: 0004         	<unknown>
     2ce: 0000         	unimp
     2d0: 0000         	unimp
     2d2: 4800         	lw	s0, 0x10(s0)
     2d4: 0004         	<unknown>
     2d6: 0000         	unimp
     2d8: 0000         	unimp
     2da: 0200         	addi	s0, sp, 0x100
     2dc: 7d00         	ld	s0, 0x38(a0)
     2de: 9000         	<unknown>
     2e0: 0004         	<unknown>
     2e2: 0000         	unimp
     2e4: 0000         	unimp
     2e6: 9c00         	<unknown>
     2e8: 0004         	<unknown>
     2ea: 0000         	unimp
     2ec: 0000         	unimp
     2ee: 0200         	addi	s0, sp, 0x100
     2f0: 7d00         	ld	s0, 0x38(a0)
     2f2: e400         	sd	s0, 0x8(s0)
     2f4: 0004         	<unknown>
     2f6: 0000         	unimp
     2f8: 0000         	unimp
     2fa: f000         	sd	s0, 0x20(s0)
     2fc: 0004         	<unknown>
     2fe: 0000         	unimp
     300: 0000         	unimp
     302: 0200         	addi	s0, sp, 0x100
     304: 7d00         	ld	s0, 0x38(a0)
     306: 3800         	fld	fs0, 0x30(s0)
     308: 0005         	c.nop	0x1
     30a: 0000         	unimp
     30c: 0000         	unimp
     30e: 4400         	lw	s0, 0x8(s0)
     310: 0005         	c.nop	0x1
     312: 0000         	unimp
     314: 0000         	unimp
     316: 0200         	addi	s0, sp, 0x100
     318: 7d00         	ld	s0, 0x38(a0)
     31a: 8c00         	<unknown>
     31c: 0005         	c.nop	0x1
     31e: 0000         	unimp
     320: 0000         	unimp
     322: 9800         	<unknown>
     324: 0005         	c.nop	0x1
     326: 0000         	unimp
     328: 0000         	unimp
     32a: 0200         	addi	s0, sp, 0x100
     32c: 7d00         	ld	s0, 0x38(a0)
     32e: c000         	sw	s0, 0x0(s0)
     330: 0005         	c.nop	0x1
     332: 0000         	unimp
     334: 0000         	unimp
     336: cc00         	sw	s0, 0x18(s0)
     338: 0005         	c.nop	0x1
     33a: 0000         	unimp
     33c: 0000         	unimp
     33e: 0200         	addi	s0, sp, 0x100
     340: 7d00         	ld	s0, 0x38(a0)
     342: 1400         	addi	s0, sp, 0x220
     344: 0006         	c.slli	zero, 0x1
     346: 0000         	unimp
     348: 0000         	unimp
     34a: 2000         	fld	fs0, 0x0(s0)
     34c: 0006         	c.slli	zero, 0x1
     34e: 0000         	unimp
     350: 0000         	unimp
     352: 0200         	addi	s0, sp, 0x100
     354: 7d00         	ld	s0, 0x38(a0)
     356: 6800         	ld	s0, 0x10(s0)
     358: 0006         	c.slli	zero, 0x1
     35a: 0000         	unimp
     35c: 0000         	unimp
     35e: 7400         	ld	s0, 0x28(s0)
     360: 0006         	c.slli	zero, 0x1
     362: 0000         	unimp
     364: 0000         	unimp
     366: 0200         	addi	s0, sp, 0x100
     368: 7d00         	ld	s0, 0x38(a0)
     36a: bc00         	fsd	fs0, 0x38(s0)
     36c: 0006         	c.slli	zero, 0x1
     36e: 0000         	unimp
     370: 0000         	unimp
     372: c800         	sw	s0, 0x10(s0)
     374: 0006         	c.slli	zero, 0x1
     376: 0000         	unimp
     378: 0000         	unimp
     37a: 0200         	addi	s0, sp, 0x100
     37c: 7d00         	ld	s0, 0x38(a0)
     37e: 1000         	addi	s0, sp, 0x20
     380: 00000007     	vle8.v	v0, (zero), v0.t
     384: 0000         	unimp
     386: 1c00         	addi	s0, sp, 0x230
     388: 00000007     	vle8.v	v0, (zero), v0.t
     38c: 0000         	unimp
     38e: 0200         	addi	s0, sp, 0x100
     390: 7d00         	ld	s0, 0x38(a0)
     392: 6400         	ld	s0, 0x8(s0)
     394: 00000007     	vle8.v	v0, (zero), v0.t
     398: 0000         	unimp
     39a: 7000         	ld	s0, 0x20(s0)
     39c: 00000007     	vle8.v	v0, (zero), v0.t
     3a0: 0000         	unimp
     3a2: 0200         	addi	s0, sp, 0x100
     3a4: 7d00         	ld	s0, 0x38(a0)
     3a6: b800         	fsd	fs0, 0x30(s0)
     3a8: 00000007     	vle8.v	v0, (zero), v0.t
     3ac: 0000         	unimp
     3ae: c400         	sw	s0, 0x8(s0)
     3b0: 00000007     	vle8.v	v0, (zero), v0.t
     3b4: 0000         	unimp
     3b6: 0200         	addi	s0, sp, 0x100
     3b8: 7d00         	ld	s0, 0x38(a0)
     3ba: ec00         	sd	s0, 0x18(s0)
     3bc: 00000007     	vle8.v	v0, (zero), v0.t
     3c0: 0000         	unimp
     3c2: f800         	sd	s0, 0x30(s0)
     3c4: 00000007     	vle8.v	v0, (zero), v0.t
     3c8: 0000         	unimp
     3ca: 0200         	addi	s0, sp, 0x100
     3cc: 7d00         	ld	s0, 0x38(a0)
     3ce: 4000         	lw	s0, 0x0(s0)
     3d0: 0008         	<unknown>
     3d2: 0000         	unimp
     3d4: 0000         	unimp
     3d6: 4c00         	lw	s0, 0x18(s0)
     3d8: 0008         	<unknown>
     3da: 0000         	unimp
     3dc: 0000         	unimp
     3de: 0200         	addi	s0, sp, 0x100
     3e0: 7d00         	ld	s0, 0x38(a0)
     3e2: 9000         	<unknown>
     3e4: 0008         	<unknown>
     3e6: 0000         	unimp
     3e8: 0000         	unimp
     3ea: 9c00         	<unknown>
     3ec: 0008         	<unknown>
     3ee: 0000         	unimp
     3f0: 0000         	unimp
     3f2: 0200         	addi	s0, sp, 0x100
     3f4: 7d00         	ld	s0, 0x38(a0)
     3f6: e400         	sd	s0, 0x8(s0)
     3f8: 0008         	<unknown>
     3fa: 0000         	unimp
     3fc: 0000         	unimp
     3fe: f000         	sd	s0, 0x20(s0)
     400: 0008         	<unknown>
     402: 0000         	unimp
     404: 0000         	unimp
     406: 0200         	addi	s0, sp, 0x100
     408: 7d00         	ld	s0, 0x38(a0)
     40a: 3800         	fld	fs0, 0x30(s0)
     40c: 0009         	c.nop	0x2
     40e: 0000         	unimp
     410: 0000         	unimp
     412: 4400         	lw	s0, 0x8(s0)
     414: 0009         	c.nop	0x2
     416: 0000         	unimp
     418: 0000         	unimp
     41a: 0200         	addi	s0, sp, 0x100
     41c: 7d00         	ld	s0, 0x38(a0)
     41e: 8c00         	<unknown>
     420: 0009         	c.nop	0x2
     422: 0000         	unimp
     424: 0000         	unimp
     426: 9800         	<unknown>
     428: 0009         	c.nop	0x2
     42a: 0000         	unimp
     42c: 0000         	unimp
     42e: 0200         	addi	s0, sp, 0x100
     430: 7d00         	ld	s0, 0x38(a0)
     432: e000         	sd	s0, 0x0(s0)
     434: 0009         	c.nop	0x2
     436: 0000         	unimp
     438: 0000         	unimp
     43a: ec00         	sd	s0, 0x18(s0)
     43c: 0009         	c.nop	0x2
     43e: 0000         	unimp
     440: 0000         	unimp
     442: 0200         	addi	s0, sp, 0x100
     444: 7d00         	ld	s0, 0x38(a0)
		...
     456: ff00         	sd	s0, 0x38(a4)
     458: ff           	<unknown>
     459: ff           	<unknown>
     45a: ff           	<unknown>
     45b: ff           	<unknown>
     45c: ff           	<unknown>
     45d: ff           	<unknown>
     45e: 000110ff 00000080 00006400   	<unknown>
     46a: 0000         	unimp
     46c: 0000         	unimp
     46e: 3400         	fld	fs0, 0x28(s0)
     470: 0001         	nop
     472: 0000         	unimp
     474: 0000         	unimp
     476: 0100         	addi	s0, sp, 0x80
     478: 5a00         	lw	s0, 0x30(a2)
     47a: 02f4         	addi	a3, sp, 0x14c
     47c: 0000         	unimp
     47e: 0000         	unimp
     480: 0000         	unimp
     482: 02f8         	addi	a4, sp, 0x14c
     484: 0000         	unimp
     486: 0000         	unimp
     488: 0000         	unimp
     48a: 0001         	nop
     48c: e85a         	sd	s6, 0x10(sp)
     48e: 00000003     	lb	zero, 0x0(zero)
     492: 0000         	unimp
     494: ec00         	sd	s0, 0x18(s0)
     496: 00000003     	lb	zero, 0x0(zero)
     49a: 0000         	unimp
     49c: 0100         	addi	s0, sp, 0x80
     49e: 5a00         	lw	s0, 0x30(a2)
     4a0: 043c         	addi	a5, sp, 0x208
     4a2: 0000         	unimp
     4a4: 0000         	unimp
     4a6: 0000         	unimp
     4a8: 0440         	addi	s0, sp, 0x204
     4aa: 0000         	unimp
     4ac: 0000         	unimp
     4ae: 0000         	unimp
     4b0: 0001         	nop
     4b2: 905a         	c.add	zero, s6
     4b4: 0004         	<unknown>
     4b6: 0000         	unimp
     4b8: 0000         	unimp
     4ba: 9400         	<unknown>
     4bc: 0004         	<unknown>
     4be: 0000         	unimp
     4c0: 0000         	unimp
     4c2: 0100         	addi	s0, sp, 0x80
     4c4: 5a00         	lw	s0, 0x30(a2)
     4c6: 04e4         	addi	s1, sp, 0x24c
     4c8: 0000         	unimp
     4ca: 0000         	unimp
     4cc: 0000         	unimp
     4ce: 04e8         	addi	a0, sp, 0x24c
     4d0: 0000         	unimp
     4d2: 0000         	unimp
     4d4: 0000         	unimp
     4d6: 0001         	nop
     4d8: 385a         	fld	fa6, 0x1b0(sp)
     4da: 0005         	c.nop	0x1
     4dc: 0000         	unimp
     4de: 0000         	unimp
     4e0: 3c00         	fld	fs0, 0x38(s0)
     4e2: 0005         	c.nop	0x1
     4e4: 0000         	unimp
     4e6: 0000         	unimp
     4e8: 0100         	addi	s0, sp, 0x80
     4ea: 5a00         	lw	s0, 0x30(a2)
     4ec: 058c         	addi	a1, sp, 0x2c0
     4ee: 0000         	unimp
     4f0: 0000         	unimp
     4f2: 0000         	unimp
     4f4: 0590         	addi	a2, sp, 0x2c0
     4f6: 0000         	unimp
     4f8: 0000         	unimp
     4fa: 0000         	unimp
     4fc: 0001         	nop
     4fe: c05a         	sw	s6, 0x0(sp)
     500: 0005         	c.nop	0x1
     502: 0000         	unimp
     504: 0000         	unimp
     506: c400         	sw	s0, 0x8(s0)
     508: 0005         	c.nop	0x1
     50a: 0000         	unimp
     50c: 0000         	unimp
     50e: 0100         	addi	s0, sp, 0x80
     510: 5a00         	lw	s0, 0x30(a2)
     512: 0614         	addi	a3, sp, 0x300
     514: 0000         	unimp
     516: 0000         	unimp
     518: 0000         	unimp
     51a: 0618         	addi	a4, sp, 0x300
     51c: 0000         	unimp
     51e: 0000         	unimp
     520: 0000         	unimp
     522: 0001         	nop
     524: 685a         	ld	a6, 0x190(sp)
     526: 0006         	c.slli	zero, 0x1
     528: 0000         	unimp
     52a: 0000         	unimp
     52c: 6c00         	ld	s0, 0x18(s0)
     52e: 0006         	c.slli	zero, 0x1
     530: 0000         	unimp
     532: 0000         	unimp
     534: 0100         	addi	s0, sp, 0x80
     536: 5a00         	lw	s0, 0x30(a2)
		...
     548: ff           	<unknown>
     549: ff           	<unknown>
     54a: ff           	<unknown>
     54b: ff           	<unknown>
     54c: ff           	<unknown>
     54d: ff           	<unknown>
     54e: ff           	<unknown>
     54f: 000110ff 00000080 0000f000   	<unknown>
     55b: 0000         	unimp
     55d: 0000         	unimp
     55f: 2800         	fld	fs0, 0x10(s0)
     561: 0002         	c.slli64	zero
     563: 0000         	unimp
     565: 0000         	unimp
     567: 0200         	addi	s0, sp, 0x100
     569: 7e00         	ld	s0, 0x38(a2)
     56b: 8c00         	<unknown>
     56d: 0005         	c.nop	0x1
     56f: 0000         	unimp
     571: 0000         	unimp
     573: 9c00         	<unknown>
     575: 0005         	c.nop	0x1
     577: 0000         	unimp
     579: 0000         	unimp
     57b: 0200         	addi	s0, sp, 0x100
     57d: 7e00         	ld	s0, 0x38(a2)
     57f: c000         	sw	s0, 0x0(s0)
     581: 0005         	c.nop	0x1
     583: 0000         	unimp
     585: 0000         	unimp
     587: d000         	sw	s0, 0x20(s0)
     589: 0005         	c.nop	0x1
     58b: 0000         	unimp
     58d: 0000         	unimp
     58f: 0200         	addi	s0, sp, 0x100
     591: 7e00         	ld	s0, 0x38(a2)
     593: 1400         	addi	s0, sp, 0x220
     595: 0006         	c.slli	zero, 0x1
     597: 0000         	unimp
     599: 0000         	unimp
     59b: 2400         	fld	fs0, 0x8(s0)
     59d: 0006         	c.slli	zero, 0x1
     59f: 0000         	unimp
     5a1: 0000         	unimp
     5a3: 0200         	addi	s0, sp, 0x100
     5a5: 7e00         	ld	s0, 0x38(a2)
     5a7: 6800         	ld	s0, 0x10(s0)
     5a9: 0006         	c.slli	zero, 0x1
     5ab: 0000         	unimp
     5ad: 0000         	unimp
     5af: 7800         	ld	s0, 0x30(s0)
     5b1: 0006         	c.slli	zero, 0x1
     5b3: 0000         	unimp
     5b5: 0000         	unimp
     5b7: 0200         	addi	s0, sp, 0x100
     5b9: 7e00         	ld	s0, 0x38(a2)
     5bb: bc00         	fsd	fs0, 0x38(s0)
     5bd: 0006         	c.slli	zero, 0x1
     5bf: 0000         	unimp
     5c1: 0000         	unimp
     5c3: cc00         	sw	s0, 0x18(s0)
     5c5: 0006         	c.slli	zero, 0x1
     5c7: 0000         	unimp
     5c9: 0000         	unimp
     5cb: 0200         	addi	s0, sp, 0x100
     5cd: 7e00         	ld	s0, 0x38(a2)
     5cf: 1000         	addi	s0, sp, 0x20
     5d1: 00000007     	vle8.v	v0, (zero), v0.t
     5d5: 0000         	unimp
     5d7: 2000         	fld	fs0, 0x0(s0)
     5d9: 00000007     	vle8.v	v0, (zero), v0.t
     5dd: 0000         	unimp
     5df: 0200         	addi	s0, sp, 0x100
     5e1: 7e00         	ld	s0, 0x38(a2)
     5e3: 6400         	ld	s0, 0x8(s0)
     5e5: 00000007     	vle8.v	v0, (zero), v0.t
     5e9: 0000         	unimp
     5eb: 7400         	ld	s0, 0x28(s0)
     5ed: 00000007     	vle8.v	v0, (zero), v0.t
     5f1: 0000         	unimp
     5f3: 0200         	addi	s0, sp, 0x100
     5f5: 7e00         	ld	s0, 0x38(a2)
     5f7: b800         	fsd	fs0, 0x30(s0)
     5f9: 00000007     	vle8.v	v0, (zero), v0.t
     5fd: 0000         	unimp
     5ff: c800         	sw	s0, 0x10(s0)
     601: 00000007     	vle8.v	v0, (zero), v0.t
     605: 0000         	unimp
     607: 0200         	addi	s0, sp, 0x100
     609: 7e00         	ld	s0, 0x38(a2)
     60b: ec00         	sd	s0, 0x18(s0)
     60d: 00000007     	vle8.v	v0, (zero), v0.t
     611: 0000         	unimp
     613: fc00         	sd	s0, 0x38(s0)
     615: 00000007     	vle8.v	v0, (zero), v0.t
     619: 0000         	unimp
     61b: 0200         	addi	s0, sp, 0x100
     61d: 7e00         	ld	s0, 0x38(a2)
     61f: 4000         	lw	s0, 0x0(s0)
     621: 0008         	<unknown>
     623: 0000         	unimp
     625: 0000         	unimp
     627: 5000         	lw	s0, 0x20(s0)
     629: 0008         	<unknown>
     62b: 0000         	unimp
     62d: 0000         	unimp
     62f: 0200         	addi	s0, sp, 0x100
     631: 7e00         	ld	s0, 0x38(a2)
     633: 9000         	<unknown>
     635: 0008         	<unknown>
     637: 0000         	unimp
     639: 0000         	unimp
     63b: a000         	fsd	fs0, 0x0(s0)
     63d: 0008         	<unknown>
     63f: 0000         	unimp
     641: 0000         	unimp
     643: 0200         	addi	s0, sp, 0x100
     645: 7e00         	ld	s0, 0x38(a2)
     647: e400         	sd	s0, 0x8(s0)
     649: 0008         	<unknown>
     64b: 0000         	unimp
     64d: 0000         	unimp
     64f: f400         	sd	s0, 0x28(s0)
     651: 0008         	<unknown>
     653: 0000         	unimp
     655: 0000         	unimp
     657: 0200         	addi	s0, sp, 0x100
     659: 7e00         	ld	s0, 0x38(a2)
     65b: 3800         	fld	fs0, 0x30(s0)
     65d: 0009         	c.nop	0x2
     65f: 0000         	unimp
     661: 0000         	unimp
     663: 4800         	lw	s0, 0x10(s0)
     665: 0009         	c.nop	0x2
     667: 0000         	unimp
     669: 0000         	unimp
     66b: 0200         	addi	s0, sp, 0x100
     66d: 7e00         	ld	s0, 0x38(a2)
     66f: 8c00         	<unknown>
     671: 0009         	c.nop	0x2
     673: 0000         	unimp
     675: 0000         	unimp
     677: 9c00         	<unknown>
     679: 0009         	c.nop	0x2
     67b: 0000         	unimp
     67d: 0000         	unimp
     67f: 0200         	addi	s0, sp, 0x100
     681: 7e00         	ld	s0, 0x38(a2)
     683: e000         	sd	s0, 0x0(s0)
     685: 0009         	c.nop	0x2
     687: 0000         	unimp
     689: 0000         	unimp
     68b: f000         	sd	s0, 0x20(s0)
     68d: 0009         	c.nop	0x2
     68f: 0000         	unimp
     691: 0000         	unimp
     693: 0200         	addi	s0, sp, 0x100
     695: 7e00         	ld	s0, 0x38(a2)
     697: 3400         	fld	fs0, 0x28(s0)
     699: 000a         	c.slli	zero, 0x2
     69b: 0000         	unimp
     69d: 0000         	unimp
     69f: 4400         	lw	s0, 0x8(s0)
     6a1: 000a         	c.slli	zero, 0x2
     6a3: 0000         	unimp
     6a5: 0000         	unimp
     6a7: 0200         	addi	s0, sp, 0x100
     6a9: 7e00         	ld	s0, 0x38(a2)
     6ab: 8400         	<unknown>
     6ad: 000a         	c.slli	zero, 0x2
     6af: 0000         	unimp
     6b1: 0000         	unimp
     6b3: 9400         	<unknown>
     6b5: 000a         	c.slli	zero, 0x2
     6b7: 0000         	unimp
     6b9: 0000         	unimp
     6bb: 0200         	addi	s0, sp, 0x100
     6bd: 7e00         	ld	s0, 0x38(a2)
     6bf: d800         	sw	s0, 0x30(s0)
     6c1: 000a         	c.slli	zero, 0x2
     6c3: 0000         	unimp
     6c5: 0000         	unimp
     6c7: e800         	sd	s0, 0x10(s0)
     6c9: 000a         	c.slli	zero, 0x2
     6cb: 0000         	unimp
     6cd: 0000         	unimp
     6cf: 0200         	addi	s0, sp, 0x100
     6d1: 7e00         	ld	s0, 0x38(a2)
		...
     6e3: ff00         	sd	s0, 0x38(a4)
     6e5: ff           	<unknown>
     6e6: ff           	<unknown>
     6e7: ff           	<unknown>
     6e8: ff           	<unknown>
     6e9: ff           	<unknown>
     6ea: ff           	<unknown>
     6eb: 000110ff 00000080 00014400   	<unknown>
     6f7: 0000         	unimp
     6f9: 0000         	unimp
     6fb: 3c00         	fld	fs0, 0x38(s0)
     6fd: 0002         	c.slli64	zero
     6ff: 0000         	unimp
     701: 0000         	unimp
     703: 0200         	addi	s0, sp, 0x100
     705: 7f00         	ld	s0, 0x38(a4)
     707: bc00         	fsd	fs0, 0x38(s0)
     709: 0006         	c.slli	zero, 0x1
     70b: 0000         	unimp
     70d: 0000         	unimp
     70f: d000         	sw	s0, 0x20(s0)
     711: 0006         	c.slli	zero, 0x1
     713: 0000         	unimp
     715: 0000         	unimp
     717: 0200         	addi	s0, sp, 0x100
     719: 7f00         	ld	s0, 0x38(a4)
     71b: 1000         	addi	s0, sp, 0x20
     71d: 00000007     	vle8.v	v0, (zero), v0.t
     721: 0000         	unimp
     723: 2400         	fld	fs0, 0x8(s0)
     725: 00000007     	vle8.v	v0, (zero), v0.t
     729: 0000         	unimp
     72b: 0200         	addi	s0, sp, 0x100
     72d: 7f00         	ld	s0, 0x38(a4)
     72f: 6400         	ld	s0, 0x8(s0)
     731: 00000007     	vle8.v	v0, (zero), v0.t
     735: 0000         	unimp
     737: 7800         	ld	s0, 0x30(s0)
     739: 00000007     	vle8.v	v0, (zero), v0.t
     73d: 0000         	unimp
     73f: 0200         	addi	s0, sp, 0x100
     741: 7f00         	ld	s0, 0x38(a4)
     743: b800         	fsd	fs0, 0x30(s0)
     745: 00000007     	vle8.v	v0, (zero), v0.t
     749: 0000         	unimp
     74b: cc00         	sw	s0, 0x18(s0)
     74d: 00000007     	vle8.v	v0, (zero), v0.t
     751: 0000         	unimp
     753: 0200         	addi	s0, sp, 0x100
     755: 7f00         	ld	s0, 0x38(a4)
     757: ec00         	sd	s0, 0x18(s0)
     759: 00000007     	vle8.v	v0, (zero), v0.t
     75d: 0000         	unimp
     75f: 0000         	unimp
     761: 0008         	<unknown>
     763: 0000         	unimp
     765: 0000         	unimp
     767: 0200         	addi	s0, sp, 0x100
     769: 7f00         	ld	s0, 0x38(a4)
     76b: 4000         	lw	s0, 0x0(s0)
     76d: 0008         	<unknown>
     76f: 0000         	unimp
     771: 0000         	unimp
     773: 5400         	lw	s0, 0x28(s0)
     775: 0008         	<unknown>
     777: 0000         	unimp
     779: 0000         	unimp
     77b: 0200         	addi	s0, sp, 0x100
     77d: 7f00         	ld	s0, 0x38(a4)
     77f: 9000         	<unknown>
     781: 0008         	<unknown>
     783: 0000         	unimp
     785: 0000         	unimp
     787: a400         	fsd	fs0, 0x8(s0)
     789: 0008         	<unknown>
     78b: 0000         	unimp
     78d: 0000         	unimp
     78f: 0200         	addi	s0, sp, 0x100
     791: 7f00         	ld	s0, 0x38(a4)
     793: e400         	sd	s0, 0x8(s0)
     795: 0008         	<unknown>
     797: 0000         	unimp
     799: 0000         	unimp
     79b: f800         	sd	s0, 0x30(s0)
     79d: 0008         	<unknown>
     79f: 0000         	unimp
     7a1: 0000         	unimp
     7a3: 0200         	addi	s0, sp, 0x100
     7a5: 7f00         	ld	s0, 0x38(a4)
     7a7: 3800         	fld	fs0, 0x30(s0)
     7a9: 0009         	c.nop	0x2
     7ab: 0000         	unimp
     7ad: 0000         	unimp
     7af: 4c00         	lw	s0, 0x18(s0)
     7b1: 0009         	c.nop	0x2
     7b3: 0000         	unimp
     7b5: 0000         	unimp
     7b7: 0200         	addi	s0, sp, 0x100
     7b9: 7f00         	ld	s0, 0x38(a4)
     7bb: 8c00         	<unknown>
     7bd: 0009         	c.nop	0x2
     7bf: 0000         	unimp
     7c1: 0000         	unimp
     7c3: a000         	fsd	fs0, 0x0(s0)
     7c5: 0009         	c.nop	0x2
     7c7: 0000         	unimp
     7c9: 0000         	unimp
     7cb: 0200         	addi	s0, sp, 0x100
     7cd: 7f00         	ld	s0, 0x38(a4)
     7cf: e000         	sd	s0, 0x0(s0)
     7d1: 0009         	c.nop	0x2
     7d3: 0000         	unimp
     7d5: 0000         	unimp
     7d7: f400         	sd	s0, 0x28(s0)
     7d9: 0009         	c.nop	0x2
     7db: 0000         	unimp
     7dd: 0000         	unimp
     7df: 0200         	addi	s0, sp, 0x100
     7e1: 7f00         	ld	s0, 0x38(a4)
     7e3: 3400         	fld	fs0, 0x28(s0)
     7e5: 000a         	c.slli	zero, 0x2
     7e7: 0000         	unimp
     7e9: 0000         	unimp
     7eb: 4800         	lw	s0, 0x10(s0)
     7ed: 000a         	c.slli	zero, 0x2
     7ef: 0000         	unimp
     7f1: 0000         	unimp
     7f3: 0200         	addi	s0, sp, 0x100
     7f5: 7f00         	ld	s0, 0x38(a4)
     7f7: 8400         	<unknown>
     7f9: 000a         	c.slli	zero, 0x2
     7fb: 0000         	unimp
     7fd: 0000         	unimp
     7ff: 9800         	<unknown>
     801: 000a         	c.slli	zero, 0x2
     803: 0000         	unimp
     805: 0000         	unimp
     807: 0200         	addi	s0, sp, 0x100
     809: 7f00         	ld	s0, 0x38(a4)
     80b: d800         	sw	s0, 0x30(s0)
     80d: 000a         	c.slli	zero, 0x2
     80f: 0000         	unimp
     811: 0000         	unimp
     813: ec00         	sd	s0, 0x18(s0)
     815: 000a         	c.slli	zero, 0x2
     817: 0000         	unimp
     819: 0000         	unimp
     81b: 0200         	addi	s0, sp, 0x100
     81d: 7f00         	ld	s0, 0x38(a4)
     81f: 2c00         	fld	fs0, 0x18(s0)
     821: 0000000b     	<unknown>
     825: 0000         	unimp
     827: 4000         	lw	s0, 0x0(s0)
     829: 0000000b     	<unknown>
     82d: 0000         	unimp
     82f: 0200         	addi	s0, sp, 0x100
     831: 7f00         	ld	s0, 0x38(a4)
     833: 8000         	<unknown>
     835: 0000000b     	<unknown>
     839: 0000         	unimp
     83b: 9400         	<unknown>
     83d: 0000000b     	<unknown>
     841: 0000         	unimp
     843: 0200         	addi	s0, sp, 0x100
     845: 7f00         	ld	s0, 0x38(a4)
		...
     857: ff00         	sd	s0, 0x38(a4)
     859: ff           	<unknown>
     85a: ff           	<unknown>
     85b: ff           	<unknown>
     85c: ff           	<unknown>
     85d: ff           	<unknown>
     85e: ff           	<unknown>
     85f: 000110ff 00000080 00018800   	<unknown>
     86b: 0000         	unimp
     86d: 0000         	unimp
     86f: f000         	sd	s0, 0x20(s0)
     871: 0001         	nop
     873: 0000         	unimp
     875: 0000         	unimp
     877: 0200         	addi	s0, sp, 0x100
     879: 7600         	ld	s0, 0x28(a2)
     87b: b800         	fsd	fs0, 0x30(s0)
     87d: 00000007     	vle8.v	v0, (zero), v0.t
     881: 0000         	unimp
     883: 3000         	fld	fs0, 0x20(s0)
     885: 0008         	<unknown>
     887: 0000         	unimp
     889: 0000         	unimp
     88b: 0200         	addi	s0, sp, 0x100
     88d: 7600         	ld	s0, 0x28(a2)
     88f: 4000         	lw	s0, 0x0(s0)
     891: 0008         	<unknown>
     893: 0000         	unimp
     895: 0000         	unimp
     897: 8000         	<unknown>
     899: 0008         	<unknown>
     89b: 0000         	unimp
     89d: 0000         	unimp
     89f: 0200         	addi	s0, sp, 0x100
     8a1: 7600         	ld	s0, 0x28(a2)
     8a3: 9000         	<unknown>
     8a5: 0008         	<unknown>
     8a7: 0000         	unimp
     8a9: 0000         	unimp
     8ab: d400         	sw	s0, 0x28(s0)
     8ad: 0008         	<unknown>
     8af: 0000         	unimp
     8b1: 0000         	unimp
     8b3: 0200         	addi	s0, sp, 0x100
     8b5: 7600         	ld	s0, 0x28(a2)
     8b7: e400         	sd	s0, 0x8(s0)
     8b9: 0008         	<unknown>
     8bb: 0000         	unimp
     8bd: 0000         	unimp
     8bf: 2800         	fld	fs0, 0x10(s0)
     8c1: 0009         	c.nop	0x2
     8c3: 0000         	unimp
     8c5: 0000         	unimp
     8c7: 0200         	addi	s0, sp, 0x100
     8c9: 7600         	ld	s0, 0x28(a2)
     8cb: 3800         	fld	fs0, 0x30(s0)
     8cd: 0009         	c.nop	0x2
     8cf: 0000         	unimp
     8d1: 0000         	unimp
     8d3: 7c00         	ld	s0, 0x38(s0)
     8d5: 0009         	c.nop	0x2
     8d7: 0000         	unimp
     8d9: 0000         	unimp
     8db: 0200         	addi	s0, sp, 0x100
     8dd: 7600         	ld	s0, 0x28(a2)
     8df: 8c00         	<unknown>
     8e1: 0009         	c.nop	0x2
     8e3: 0000         	unimp
     8e5: 0000         	unimp
     8e7: d000         	sw	s0, 0x20(s0)
     8e9: 0009         	c.nop	0x2
     8eb: 0000         	unimp
     8ed: 0000         	unimp
     8ef: 0200         	addi	s0, sp, 0x100
     8f1: 7600         	ld	s0, 0x28(a2)
		...
     903: ff00         	sd	s0, 0x38(a4)
     905: ff           	<unknown>
     906: ff           	<unknown>
     907: ff           	<unknown>
     908: ff           	<unknown>
     909: ff           	<unknown>
     90a: ff           	<unknown>
     90b: 000110ff 00000080 00018c00   	<unknown>
     917: 0000         	unimp
     919: 0000         	unimp
     91b: b000         	fsd	fs0, 0x20(s0)
     91d: 0001         	nop
     91f: 0000         	unimp
     921: 0000         	unimp
     923: 0200         	addi	s0, sp, 0x100
     925: 8d00         	<unknown>
		...
     937: ff00         	sd	s0, 0x38(a4)
     939: ff           	<unknown>
     93a: ff           	<unknown>
     93b: ff           	<unknown>
     93c: ff           	<unknown>
     93d: ff           	<unknown>
     93e: ff           	<unknown>
     93f: 000110ff 00000080 00018000   	<unknown>
     94b: 0000         	unimp
     94d: 0000         	unimp
     94f: 3c00         	fld	fs0, 0x38(s0)
     951: 0002         	c.slli64	zero
     953: 0000         	unimp
     955: 0000         	unimp
     957: 0200         	addi	s0, sp, 0x100
     959: 7b00         	ld	s0, 0x30(a4)
     95b: b800         	fsd	fs0, 0x30(s0)
     95d: 00000007     	vle8.v	v0, (zero), v0.t
     961: 0000         	unimp
     963: c000         	sw	s0, 0x0(s0)
     965: 00000007     	vle8.v	v0, (zero), v0.t
     969: 0000         	unimp
     96b: 0200         	addi	s0, sp, 0x100
     96d: 7b00         	ld	s0, 0x30(a4)
     96f: ec00         	sd	s0, 0x18(s0)
     971: 00000007     	vle8.v	v0, (zero), v0.t
     975: 0000         	unimp
     977: f400         	sd	s0, 0x28(s0)
     979: 00000007     	vle8.v	v0, (zero), v0.t
     97d: 0000         	unimp
     97f: 0200         	addi	s0, sp, 0x100
     981: 7b00         	ld	s0, 0x30(a4)
     983: 4000         	lw	s0, 0x0(s0)
     985: 0008         	<unknown>
     987: 0000         	unimp
     989: 0000         	unimp
     98b: 4800         	lw	s0, 0x10(s0)
     98d: 0008         	<unknown>
     98f: 0000         	unimp
     991: 0000         	unimp
     993: 0200         	addi	s0, sp, 0x100
     995: 7b00         	ld	s0, 0x30(a4)
     997: 9000         	<unknown>
     999: 0008         	<unknown>
     99b: 0000         	unimp
     99d: 0000         	unimp
     99f: 9800         	<unknown>
     9a1: 0008         	<unknown>
     9a3: 0000         	unimp
     9a5: 0000         	unimp
     9a7: 0200         	addi	s0, sp, 0x100
     9a9: 7b00         	ld	s0, 0x30(a4)
     9ab: e400         	sd	s0, 0x8(s0)
     9ad: 0008         	<unknown>
     9af: 0000         	unimp
     9b1: 0000         	unimp
     9b3: ec00         	sd	s0, 0x18(s0)
     9b5: 0008         	<unknown>
     9b7: 0000         	unimp
     9b9: 0000         	unimp
     9bb: 0200         	addi	s0, sp, 0x100
     9bd: 7b00         	ld	s0, 0x30(a4)
     9bf: 3800         	fld	fs0, 0x30(s0)
     9c1: 0009         	c.nop	0x2
     9c3: 0000         	unimp
     9c5: 0000         	unimp
     9c7: 4000         	lw	s0, 0x0(s0)
     9c9: 0009         	c.nop	0x2
     9cb: 0000         	unimp
     9cd: 0000         	unimp
     9cf: 0200         	addi	s0, sp, 0x100
     9d1: 7b00         	ld	s0, 0x30(a4)
     9d3: 8c00         	<unknown>
     9d5: 0009         	c.nop	0x2
     9d7: 0000         	unimp
     9d9: 0000         	unimp
     9db: 9400         	<unknown>
     9dd: 0009         	c.nop	0x2
     9df: 0000         	unimp
     9e1: 0000         	unimp
     9e3: 0200         	addi	s0, sp, 0x100
     9e5: 7b00         	ld	s0, 0x30(a4)
     9e7: e000         	sd	s0, 0x0(s0)
     9e9: 0009         	c.nop	0x2
     9eb: 0000         	unimp
     9ed: 0000         	unimp
     9ef: e800         	sd	s0, 0x10(s0)
     9f1: 0009         	c.nop	0x2
     9f3: 0000         	unimp
     9f5: 0000         	unimp
     9f7: 0200         	addi	s0, sp, 0x100
     9f9: 7b00         	ld	s0, 0x30(a4)
     9fb: 3400         	fld	fs0, 0x28(s0)
     9fd: 000a         	c.slli	zero, 0x2
     9ff: 0000         	unimp
     a01: 0000         	unimp
     a03: 3c00         	fld	fs0, 0x38(s0)
     a05: 000a         	c.slli	zero, 0x2
     a07: 0000         	unimp
     a09: 0000         	unimp
     a0b: 0200         	addi	s0, sp, 0x100
     a0d: 7b00         	ld	s0, 0x30(a4)
     a0f: 8400         	<unknown>
     a11: 000a         	c.slli	zero, 0x2
     a13: 0000         	unimp
     a15: 0000         	unimp
     a17: 8c00         	<unknown>
     a19: 000a         	c.slli	zero, 0x2
     a1b: 0000         	unimp
     a1d: 0000         	unimp
     a1f: 0200         	addi	s0, sp, 0x100
     a21: 7b00         	ld	s0, 0x30(a4)
     a23: d800         	sw	s0, 0x30(s0)
     a25: 000a         	c.slli	zero, 0x2
     a27: 0000         	unimp
     a29: 0000         	unimp
     a2b: e000         	sd	s0, 0x0(s0)
     a2d: 000a         	c.slli	zero, 0x2
     a2f: 0000         	unimp
     a31: 0000         	unimp
     a33: 0200         	addi	s0, sp, 0x100
     a35: 7b00         	ld	s0, 0x30(a4)
     a37: 2c00         	fld	fs0, 0x18(s0)
     a39: 0000000b     	<unknown>
     a3d: 0000         	unimp
     a3f: 3400         	fld	fs0, 0x28(s0)
     a41: 0000000b     	<unknown>
     a45: 0000         	unimp
     a47: 0200         	addi	s0, sp, 0x100
     a49: 7b00         	ld	s0, 0x30(a4)
     a4b: 8000         	<unknown>
     a4d: 0000000b     	<unknown>
     a51: 0000         	unimp
     a53: 8800         	<unknown>
     a55: 0000000b     	<unknown>
     a59: 0000         	unimp
     a5b: 0200         	addi	s0, sp, 0x100
     a5d: 7b00         	ld	s0, 0x30(a4)
		...
     a6f: ff00         	sd	s0, 0x38(a4)
     a71: ff           	<unknown>
     a72: ff           	<unknown>
     a73: ff           	<unknown>
     a74: ff           	<unknown>
     a75: ff           	<unknown>
     a76: ff           	<unknown>
     a77: 000110ff 00000080 00019400   	<unknown>
     a83: 0000         	unimp
     a85: 0000         	unimp
     a87: 1000         	addi	s0, sp, 0x20
     a89: 0002         	c.slli64	zero
     a8b: 0000         	unimp
     a8d: 0000         	unimp
     a8f: 0200         	addi	s0, sp, 0x100
     a91: 7500         	ld	s0, 0x28(a0)
     a93: b800         	fsd	fs0, 0x30(s0)
     a95: 00000007     	vle8.v	v0, (zero), v0.t
     a99: 0000         	unimp
     a9b: 3000         	fld	fs0, 0x20(s0)
     a9d: 0008         	<unknown>
     a9f: 0000         	unimp
     aa1: 0000         	unimp
     aa3: 0200         	addi	s0, sp, 0x100
     aa5: 7500         	ld	s0, 0x28(a0)
     aa7: 4000         	lw	s0, 0x0(s0)
     aa9: 0008         	<unknown>
     aab: 0000         	unimp
     aad: 0000         	unimp
     aaf: 8000         	<unknown>
     ab1: 0008         	<unknown>
     ab3: 0000         	unimp
     ab5: 0000         	unimp
     ab7: 0200         	addi	s0, sp, 0x100
     ab9: 7500         	ld	s0, 0x28(a0)
     abb: 9000         	<unknown>
     abd: 0008         	<unknown>
     abf: 0000         	unimp
     ac1: 0000         	unimp
     ac3: d400         	sw	s0, 0x28(s0)
     ac5: 0008         	<unknown>
     ac7: 0000         	unimp
     ac9: 0000         	unimp
     acb: 0200         	addi	s0, sp, 0x100
     acd: 7500         	ld	s0, 0x28(a0)
     acf: e400         	sd	s0, 0x8(s0)
     ad1: 0008         	<unknown>
     ad3: 0000         	unimp
     ad5: 0000         	unimp
     ad7: 2800         	fld	fs0, 0x10(s0)
     ad9: 0009         	c.nop	0x2
     adb: 0000         	unimp
     add: 0000         	unimp
     adf: 0200         	addi	s0, sp, 0x100
     ae1: 7500         	ld	s0, 0x28(a0)
     ae3: 3800         	fld	fs0, 0x30(s0)
     ae5: 0009         	c.nop	0x2
     ae7: 0000         	unimp
     ae9: 0000         	unimp
     aeb: 7c00         	ld	s0, 0x38(s0)
     aed: 0009         	c.nop	0x2
     aef: 0000         	unimp
     af1: 0000         	unimp
     af3: 0200         	addi	s0, sp, 0x100
     af5: 7500         	ld	s0, 0x28(a0)
     af7: 8c00         	<unknown>
     af9: 0009         	c.nop	0x2
     afb: 0000         	unimp
     afd: 0000         	unimp
     aff: d000         	sw	s0, 0x20(s0)
     b01: 0009         	c.nop	0x2
     b03: 0000         	unimp
     b05: 0000         	unimp
     b07: 0200         	addi	s0, sp, 0x100
     b09: 7500         	ld	s0, 0x28(a0)
     b0b: e000         	sd	s0, 0x0(s0)
     b0d: 0009         	c.nop	0x2
     b0f: 0000         	unimp
     b11: 0000         	unimp
     b13: 2400         	fld	fs0, 0x8(s0)
     b15: 000a         	c.slli	zero, 0x2
     b17: 0000         	unimp
     b19: 0000         	unimp
     b1b: 0200         	addi	s0, sp, 0x100
     b1d: 7500         	ld	s0, 0x28(a0)
     b1f: 3400         	fld	fs0, 0x28(s0)
     b21: 000a         	c.slli	zero, 0x2
     b23: 0000         	unimp
     b25: 0000         	unimp
     b27: 6400         	ld	s0, 0x8(s0)
     b29: 000a         	c.slli	zero, 0x2
     b2b: 0000         	unimp
     b2d: 0000         	unimp
     b2f: 0200         	addi	s0, sp, 0x100
     b31: 7500         	ld	s0, 0x28(a0)
		...
     b43: ff00         	sd	s0, 0x38(a4)
     b45: ff           	<unknown>
     b46: ff           	<unknown>
     b47: ff           	<unknown>
     b48: ff           	<unknown>
     b49: ff           	<unknown>
     b4a: ff           	<unknown>
     b4b: 000110ff 00000080 00019800   	<unknown>
     b57: 0000         	unimp
     b59: 0000         	unimp
     b5b: c800         	sw	s0, 0x10(s0)
     b5d: 0001         	nop
     b5f: 0000         	unimp
     b61: 0000         	unimp
     b63: 0200         	addi	s0, sp, 0x100
     b65: 8c00         	<unknown>
     b67: b800         	fsd	fs0, 0x30(s0)
     b69: 00000007     	vle8.v	v0, (zero), v0.t
     b6d: 0000         	unimp
     b6f: 3000         	fld	fs0, 0x20(s0)
     b71: 0008         	<unknown>
     b73: 0000         	unimp
     b75: 0000         	unimp
     b77: 0200         	addi	s0, sp, 0x100
     b79: 8c00         	<unknown>
		...
     b8b: ff00         	sd	s0, 0x38(a4)
     b8d: ff           	<unknown>
     b8e: ff           	<unknown>
     b8f: ff           	<unknown>
     b90: ff           	<unknown>
     b91: ff           	<unknown>
     b92: ff           	<unknown>
     b93: 000110ff 00000080 00019000   	<unknown>
     b9f: 0000         	unimp
     ba1: 0000         	unimp
     ba3: 3c00         	fld	fs0, 0x38(s0)
     ba5: 0002         	c.slli64	zero
     ba7: 0000         	unimp
     ba9: 0000         	unimp
     bab: 0200         	addi	s0, sp, 0x100
     bad: 7c00         	ld	s0, 0x38(s0)
     baf: b800         	fsd	fs0, 0x30(s0)
     bb1: 00000007     	vle8.v	v0, (zero), v0.t
     bb5: 0000         	unimp
     bb7: d800         	sw	s0, 0x30(s0)
     bb9: 00000007     	vle8.v	v0, (zero), v0.t
     bbd: 0000         	unimp
     bbf: 0200         	addi	s0, sp, 0x100
     bc1: 7c00         	ld	s0, 0x38(s0)
     bc3: ec00         	sd	s0, 0x18(s0)
     bc5: 00000007     	vle8.v	v0, (zero), v0.t
     bc9: 0000         	unimp
     bcb: 1000         	addi	s0, sp, 0x20
     bcd: 0008         	<unknown>
     bcf: 0000         	unimp
     bd1: 0000         	unimp
     bd3: 0200         	addi	s0, sp, 0x100
     bd5: 7c00         	ld	s0, 0x38(s0)
     bd7: 4000         	lw	s0, 0x0(s0)
     bd9: 0008         	<unknown>
     bdb: 0000         	unimp
     bdd: 0000         	unimp
     bdf: 6000         	ld	s0, 0x0(s0)
     be1: 0008         	<unknown>
     be3: 0000         	unimp
     be5: 0000         	unimp
     be7: 0200         	addi	s0, sp, 0x100
     be9: 7c00         	ld	s0, 0x38(s0)
     beb: 9000         	<unknown>
     bed: 0008         	<unknown>
     bef: 0000         	unimp
     bf1: 0000         	unimp
     bf3: b400         	fsd	fs0, 0x28(s0)
     bf5: 0008         	<unknown>
     bf7: 0000         	unimp
     bf9: 0000         	unimp
     bfb: 0200         	addi	s0, sp, 0x100
     bfd: 7c00         	ld	s0, 0x38(s0)
     bff: e400         	sd	s0, 0x8(s0)
     c01: 0008         	<unknown>
     c03: 0000         	unimp
     c05: 0000         	unimp
     c07: 0800         	addi	s0, sp, 0x10
     c09: 0009         	c.nop	0x2
     c0b: 0000         	unimp
     c0d: 0000         	unimp
     c0f: 0200         	addi	s0, sp, 0x100
     c11: 7c00         	ld	s0, 0x38(s0)
     c13: 3800         	fld	fs0, 0x30(s0)
     c15: 0009         	c.nop	0x2
     c17: 0000         	unimp
     c19: 0000         	unimp
     c1b: 5c00         	lw	s0, 0x38(s0)
     c1d: 0009         	c.nop	0x2
     c1f: 0000         	unimp
     c21: 0000         	unimp
     c23: 0200         	addi	s0, sp, 0x100
     c25: 7c00         	ld	s0, 0x38(s0)
     c27: 8c00         	<unknown>
     c29: 0009         	c.nop	0x2
     c2b: 0000         	unimp
     c2d: 0000         	unimp
     c2f: b000         	fsd	fs0, 0x20(s0)
     c31: 0009         	c.nop	0x2
     c33: 0000         	unimp
     c35: 0000         	unimp
     c37: 0200         	addi	s0, sp, 0x100
     c39: 7c00         	ld	s0, 0x38(s0)
     c3b: e000         	sd	s0, 0x0(s0)
     c3d: 0009         	c.nop	0x2
     c3f: 0000         	unimp
     c41: 0000         	unimp
     c43: 0400         	addi	s0, sp, 0x200
     c45: 000a         	c.slli	zero, 0x2
     c47: 0000         	unimp
     c49: 0000         	unimp
     c4b: 0200         	addi	s0, sp, 0x100
     c4d: 7c00         	ld	s0, 0x38(s0)
     c4f: 3400         	fld	fs0, 0x28(s0)
     c51: 000a         	c.slli	zero, 0x2
     c53: 0000         	unimp
     c55: 0000         	unimp
     c57: 5400         	lw	s0, 0x28(s0)
     c59: 000a         	c.slli	zero, 0x2
     c5b: 0000         	unimp
     c5d: 0000         	unimp
     c5f: 0200         	addi	s0, sp, 0x100
     c61: 7c00         	ld	s0, 0x38(s0)
     c63: 8400         	<unknown>
     c65: 000a         	c.slli	zero, 0x2
     c67: 0000         	unimp
     c69: 0000         	unimp
     c6b: a800         	fsd	fs0, 0x10(s0)
     c6d: 000a         	c.slli	zero, 0x2
     c6f: 0000         	unimp
     c71: 0000         	unimp
     c73: 0200         	addi	s0, sp, 0x100
     c75: 7c00         	ld	s0, 0x38(s0)
     c77: d800         	sw	s0, 0x30(s0)
     c79: 000a         	c.slli	zero, 0x2
     c7b: 0000         	unimp
     c7d: 0000         	unimp
     c7f: fc00         	sd	s0, 0x38(s0)
     c81: 000a         	c.slli	zero, 0x2
     c83: 0000         	unimp
     c85: 0000         	unimp
     c87: 0200         	addi	s0, sp, 0x100
     c89: 7c00         	ld	s0, 0x38(s0)
     c8b: 2c00         	fld	fs0, 0x18(s0)
     c8d: 0000000b     	<unknown>
     c91: 0000         	unimp
     c93: 5000         	lw	s0, 0x20(s0)
     c95: 0000000b     	<unknown>
     c99: 0000         	unimp
     c9b: 0200         	addi	s0, sp, 0x100
     c9d: 7c00         	ld	s0, 0x38(s0)
     c9f: 8000         	<unknown>
     ca1: 0000000b     	<unknown>
     ca5: 0000         	unimp
     ca7: a400         	fsd	fs0, 0x8(s0)
     ca9: 0000000b     	<unknown>
     cad: 0000         	unimp
     caf: 0200         	addi	s0, sp, 0x100
     cb1: 7c00         	ld	s0, 0x38(s0)
		...
     cc3: ff00         	sd	s0, 0x38(a4)
     cc5: ff           	<unknown>
     cc6: ff           	<unknown>
     cc7: ff           	<unknown>
     cc8: ff           	<unknown>
     cc9: ff           	<unknown>
     cca: ff           	<unknown>
     ccb: 000110ff 00000080 0001a000   	<unknown>
     cd7: 0000         	unimp
     cd9: 0000         	unimp
     cdb: 3c00         	fld	fs0, 0x38(s0)
     cdd: 0002         	c.slli64	zero
     cdf: 0000         	unimp
     ce1: 0000         	unimp
     ce3: 0200         	addi	s0, sp, 0x100
     ce5: 8000         	<unknown>
     ce7: b800         	fsd	fs0, 0x30(s0)
     ce9: 00000007     	vle8.v	v0, (zero), v0.t
     ced: 0000         	unimp
     cef: d000         	sw	s0, 0x20(s0)
     cf1: 00000007     	vle8.v	v0, (zero), v0.t
     cf5: 0000         	unimp
     cf7: 0200         	addi	s0, sp, 0x100
     cf9: 8000         	<unknown>
     cfb: ec00         	sd	s0, 0x18(s0)
     cfd: 00000007     	vle8.v	v0, (zero), v0.t
     d01: 0000         	unimp
     d03: 0400         	addi	s0, sp, 0x200
     d05: 0008         	<unknown>
     d07: 0000         	unimp
     d09: 0000         	unimp
     d0b: 0200         	addi	s0, sp, 0x100
     d0d: 8000         	<unknown>
     d0f: 4000         	lw	s0, 0x0(s0)
     d11: 0008         	<unknown>
     d13: 0000         	unimp
     d15: 0000         	unimp
     d17: 5800         	lw	s0, 0x30(s0)
     d19: 0008         	<unknown>
     d1b: 0000         	unimp
     d1d: 0000         	unimp
     d1f: 0200         	addi	s0, sp, 0x100
     d21: 8000         	<unknown>
     d23: 9000         	<unknown>
     d25: 0008         	<unknown>
     d27: 0000         	unimp
     d29: 0000         	unimp
     d2b: a800         	fsd	fs0, 0x10(s0)
     d2d: 0008         	<unknown>
     d2f: 0000         	unimp
     d31: 0000         	unimp
     d33: 0200         	addi	s0, sp, 0x100
     d35: 8000         	<unknown>
     d37: e400         	sd	s0, 0x8(s0)
     d39: 0008         	<unknown>
     d3b: 0000         	unimp
     d3d: 0000         	unimp
     d3f: fc00         	sd	s0, 0x38(s0)
     d41: 0008         	<unknown>
     d43: 0000         	unimp
     d45: 0000         	unimp
     d47: 0200         	addi	s0, sp, 0x100
     d49: 8000         	<unknown>
     d4b: 3800         	fld	fs0, 0x30(s0)
     d4d: 0009         	c.nop	0x2
     d4f: 0000         	unimp
     d51: 0000         	unimp
     d53: 5000         	lw	s0, 0x20(s0)
     d55: 0009         	c.nop	0x2
     d57: 0000         	unimp
     d59: 0000         	unimp
     d5b: 0200         	addi	s0, sp, 0x100
     d5d: 8000         	<unknown>
     d5f: 8c00         	<unknown>
     d61: 0009         	c.nop	0x2
     d63: 0000         	unimp
     d65: 0000         	unimp
     d67: a400         	fsd	fs0, 0x8(s0)
     d69: 0009         	c.nop	0x2
     d6b: 0000         	unimp
     d6d: 0000         	unimp
     d6f: 0200         	addi	s0, sp, 0x100
     d71: 8000         	<unknown>
     d73: e000         	sd	s0, 0x0(s0)
     d75: 0009         	c.nop	0x2
     d77: 0000         	unimp
     d79: 0000         	unimp
     d7b: f800         	sd	s0, 0x30(s0)
     d7d: 0009         	c.nop	0x2
     d7f: 0000         	unimp
     d81: 0000         	unimp
     d83: 0200         	addi	s0, sp, 0x100
     d85: 8000         	<unknown>
     d87: 3400         	fld	fs0, 0x28(s0)
     d89: 000a         	c.slli	zero, 0x2
     d8b: 0000         	unimp
     d8d: 0000         	unimp
     d8f: 6000         	ld	s0, 0x0(s0)
     d91: 000a         	c.slli	zero, 0x2
     d93: 0000         	unimp
     d95: 0000         	unimp
     d97: 0200         	addi	s0, sp, 0x100
     d99: 8000         	<unknown>
     d9b: 8400         	<unknown>
     d9d: 000a         	c.slli	zero, 0x2
     d9f: 0000         	unimp
     da1: 0000         	unimp
     da3: 9c00         	<unknown>
     da5: 000a         	c.slli	zero, 0x2
     da7: 0000         	unimp
     da9: 0000         	unimp
     dab: 0200         	addi	s0, sp, 0x100
     dad: 8000         	<unknown>
     daf: d800         	sw	s0, 0x30(s0)
     db1: 000a         	c.slli	zero, 0x2
     db3: 0000         	unimp
     db5: 0000         	unimp
     db7: f000         	sd	s0, 0x20(s0)
     db9: 000a         	c.slli	zero, 0x2
     dbb: 0000         	unimp
     dbd: 0000         	unimp
     dbf: 0200         	addi	s0, sp, 0x100
     dc1: 8000         	<unknown>
     dc3: 2c00         	fld	fs0, 0x18(s0)
     dc5: 0000000b     	<unknown>
     dc9: 0000         	unimp
     dcb: 4400         	lw	s0, 0x8(s0)
     dcd: 0000000b     	<unknown>
     dd1: 0000         	unimp
     dd3: 0200         	addi	s0, sp, 0x100
     dd5: 8000         	<unknown>
     dd7: 8000         	<unknown>
     dd9: 0000000b     	<unknown>
     ddd: 0000         	unimp
     ddf: 9800         	<unknown>
     de1: 0000000b     	<unknown>
     de5: 0000         	unimp
     de7: 0200         	addi	s0, sp, 0x100
     de9: 8000         	<unknown>
		...
     dfb: ff00         	sd	s0, 0x38(a4)
     dfd: ff           	<unknown>
     dfe: ff           	<unknown>
     dff: ff           	<unknown>
     e00: ff           	<unknown>
     e01: ff           	<unknown>
     e02: ff           	<unknown>
     e03: 000110ff 00000080 00019c00   	<unknown>
     e0f: 0000         	unimp
     e11: 0000         	unimp
     e13: 3c00         	fld	fs0, 0x38(s0)
     e15: 0002         	c.slli64	zero
     e17: 0000         	unimp
     e19: 0000         	unimp
     e1b: 0200         	addi	s0, sp, 0x100
     e1d: 7a00         	ld	s0, 0x30(a2)
     e1f: b800         	fsd	fs0, 0x30(s0)
     e21: 00000007     	vle8.v	v0, (zero), v0.t
     e25: 0000         	unimp
     e27: bc00         	fsd	fs0, 0x38(s0)
     e29: 00000007     	vle8.v	v0, (zero), v0.t
     e2d: 0000         	unimp
     e2f: 0200         	addi	s0, sp, 0x100
     e31: 7a00         	ld	s0, 0x30(a2)
     e33: ec00         	sd	s0, 0x18(s0)
     e35: 00000007     	vle8.v	v0, (zero), v0.t
     e39: 0000         	unimp
     e3b: f000         	sd	s0, 0x20(s0)
     e3d: 00000007     	vle8.v	v0, (zero), v0.t
     e41: 0000         	unimp
     e43: 0200         	addi	s0, sp, 0x100
     e45: 7a00         	ld	s0, 0x30(a2)
     e47: 4000         	lw	s0, 0x0(s0)
     e49: 0008         	<unknown>
     e4b: 0000         	unimp
     e4d: 0000         	unimp
     e4f: 4400         	lw	s0, 0x8(s0)
     e51: 0008         	<unknown>
     e53: 0000         	unimp
     e55: 0000         	unimp
     e57: 0200         	addi	s0, sp, 0x100
     e59: 7a00         	ld	s0, 0x30(a2)
     e5b: 9000         	<unknown>
     e5d: 0008         	<unknown>
     e5f: 0000         	unimp
     e61: 0000         	unimp
     e63: 9400         	<unknown>
     e65: 0008         	<unknown>
     e67: 0000         	unimp
     e69: 0000         	unimp
     e6b: 0200         	addi	s0, sp, 0x100
     e6d: 7a00         	ld	s0, 0x30(a2)
     e6f: e400         	sd	s0, 0x8(s0)
     e71: 0008         	<unknown>
     e73: 0000         	unimp
     e75: 0000         	unimp
     e77: e800         	sd	s0, 0x10(s0)
     e79: 0008         	<unknown>
     e7b: 0000         	unimp
     e7d: 0000         	unimp
     e7f: 0200         	addi	s0, sp, 0x100
     e81: 7a00         	ld	s0, 0x30(a2)
     e83: 3800         	fld	fs0, 0x30(s0)
     e85: 0009         	c.nop	0x2
     e87: 0000         	unimp
     e89: 0000         	unimp
     e8b: 3c00         	fld	fs0, 0x38(s0)
     e8d: 0009         	c.nop	0x2
     e8f: 0000         	unimp
     e91: 0000         	unimp
     e93: 0200         	addi	s0, sp, 0x100
     e95: 7a00         	ld	s0, 0x30(a2)
     e97: 8c00         	<unknown>
     e99: 0009         	c.nop	0x2
     e9b: 0000         	unimp
     e9d: 0000         	unimp
     e9f: 9000         	<unknown>
     ea1: 0009         	c.nop	0x2
     ea3: 0000         	unimp
     ea5: 0000         	unimp
     ea7: 0200         	addi	s0, sp, 0x100
     ea9: 7a00         	ld	s0, 0x30(a2)
     eab: e000         	sd	s0, 0x0(s0)
     ead: 0009         	c.nop	0x2
     eaf: 0000         	unimp
     eb1: 0000         	unimp
     eb3: e400         	sd	s0, 0x8(s0)
     eb5: 0009         	c.nop	0x2
     eb7: 0000         	unimp
     eb9: 0000         	unimp
     ebb: 0200         	addi	s0, sp, 0x100
     ebd: 7a00         	ld	s0, 0x30(a2)
     ebf: 3400         	fld	fs0, 0x28(s0)
     ec1: 000a         	c.slli	zero, 0x2
     ec3: 0000         	unimp
     ec5: 0000         	unimp
     ec7: 3800         	fld	fs0, 0x30(s0)
     ec9: 000a         	c.slli	zero, 0x2
     ecb: 0000         	unimp
     ecd: 0000         	unimp
     ecf: 0200         	addi	s0, sp, 0x100
     ed1: 7a00         	ld	s0, 0x30(a2)
     ed3: 8400         	<unknown>
     ed5: 000a         	c.slli	zero, 0x2
     ed7: 0000         	unimp
     ed9: 0000         	unimp
     edb: 8800         	<unknown>
     edd: 000a         	c.slli	zero, 0x2
     edf: 0000         	unimp
     ee1: 0000         	unimp
     ee3: 0200         	addi	s0, sp, 0x100
     ee5: 7a00         	ld	s0, 0x30(a2)
     ee7: d800         	sw	s0, 0x30(s0)
     ee9: 000a         	c.slli	zero, 0x2
     eeb: 0000         	unimp
     eed: 0000         	unimp
     eef: dc00         	sw	s0, 0x38(s0)
     ef1: 000a         	c.slli	zero, 0x2
     ef3: 0000         	unimp
     ef5: 0000         	unimp
     ef7: 0200         	addi	s0, sp, 0x100
     ef9: 7a00         	ld	s0, 0x30(a2)
     efb: 2c00         	fld	fs0, 0x18(s0)
     efd: 0000000b     	<unknown>
     f01: 0000         	unimp
     f03: 3000         	fld	fs0, 0x20(s0)
     f05: 0000000b     	<unknown>
     f09: 0000         	unimp
     f0b: 0200         	addi	s0, sp, 0x100
     f0d: 7a00         	ld	s0, 0x30(a2)
     f0f: 8000         	<unknown>
     f11: 0000000b     	<unknown>
     f15: 0000         	unimp
     f17: 8400         	<unknown>
     f19: 0000000b     	<unknown>
     f1d: 0000         	unimp
     f1f: 0200         	addi	s0, sp, 0x100
     f21: 7a00         	ld	s0, 0x30(a2)
		...
     f33: ff00         	sd	s0, 0x38(a4)
     f35: ff           	<unknown>
     f36: ff           	<unknown>
     f37: ff           	<unknown>
     f38: ff           	<unknown>
     f39: ff           	<unknown>
     f3a: ff           	<unknown>
     f3b: 48ff 000d 0080 0000 0000 0000 0000 0000 1400 	<unknown>
     f4d: 0000         	unimp
     f4f: 0000         	unimp
     f51: 0000         	unimp
     f53: 0100         	addi	s0, sp, 0x80
     f55: 5a00         	lw	s0, 0x30(a2)
     f57: 0014         	<unknown>
     f59: 0000         	unimp
     f5b: 0000         	unimp
     f5d: 0000         	unimp
     f5f: 0034         	addi	a3, sp, 0x8
     f61: 0000         	unimp
     f63: 0000         	unimp
     f65: 0000         	unimp
     f67: 0001         	nop
     f69: 0058         	addi	a4, sp, 0x4
		...
     f77: 0000         	unimp
     f79: ff00         	sd	s0, 0x38(a4)
     f7b: ff           	<unknown>
     f7c: ff           	<unknown>
     f7d: ff           	<unknown>
     f7e: ff           	<unknown>
     f7f: ff           	<unknown>
     f80: ff           	<unknown>
     f81: 48ff 000d 0080 0000 0000 0000 0000 0000 1c00 	<unknown>
     f93: 0000         	unimp
     f95: 0000         	unimp
     f97: 0000         	unimp
     f99: 0100         	addi	s0, sp, 0x80
     f9b: 5b00         	lw	s0, 0x30(a4)
     f9d: 001c         	<unknown>
     f9f: 0000         	unimp
     fa1: 0000         	unimp
     fa3: 0000         	unimp
     fa5: 0028         	addi	a0, sp, 0x8
     fa7: 0000         	unimp
     fa9: 0000         	unimp
     fab: 0000         	unimp
     fad: 0001         	nop
     faf: 005a         	c.slli	zero, 0x16
		...
     fbd: 0000         	unimp
     fbf: ff00         	sd	s0, 0x38(a4)
     fc1: ff           	<unknown>
     fc2: ff           	<unknown>
     fc3: ff           	<unknown>
     fc4: ff           	<unknown>
     fc5: ff           	<unknown>
     fc6: ff           	<unknown>
     fc7: 48ff 000d 0080 0000 0000 0000 0000 0000 1000 	<unknown>
     fd9: 0000         	unimp
     fdb: 0000         	unimp
     fdd: 0000         	unimp
     fdf: 0100         	addi	s0, sp, 0x80
     fe1: 5c00         	lw	s0, 0x38(s0)
     fe3: 0010         	<unknown>
     fe5: 0000         	unimp
     fe7: 0000         	unimp
     fe9: 0000         	unimp
     feb: 0020         	addi	s0, sp, 0x8
     fed: 0000         	unimp
     fef: 0000         	unimp
     ff1: 0000         	unimp
     ff3: 0001         	nop
     ff5: 205d         	<unknown>
     ff7: 0000         	unimp
     ff9: 0000         	unimp
     ffb: 0000         	unimp
     ffd: 2800         	fld	fs0, 0x10(s0)
     fff: 0000         	unimp
    1001: 0000         	unimp
    1003: 0000         	unimp
    1005: 0100         	addi	s0, sp, 0x80
    1007: 5b00         	lw	s0, 0x30(a4)
		...

Disassembly of section .debug_abbrev:

0000000000000000 <.debug_abbrev>:
       0: 1101         	addi	sp, sp, -0x20
       2: 2501         	sext.w	a0, a0
       4: 130e         	slli	t1, t1, 0x23
       6: 0305         	addi	t1, t1, 0x1
       8: 100e         	c.slli	zero, 0x23
       a: b40e1b17     	auipc	s6, 0xb40e1
       e: 1942         	slli	s2, s2, 0x30
      10: 0111         	addi	sp, sp, 0x4
      12: 1755         	addi	a4, a4, -0xb
      14: 0000         	unimp
      16: 2e02         	fld	ft8, 0x0(sp)
      18: 1101         	addi	sp, sp, -0x20
      1a: 1201         	addi	tp, tp, -0x20
      1c: 4006         	<unknown>
      1e: 0318         	addi	a4, sp, 0x180
      20: 270e         	fld	fa4, 0xc0(sp)
      22: 4919         	li	s2, 0x6
      24: 03000013     	li	zero, 0x30
      28: 0005         	c.nop	0x1
      2a: 13490e03     	lb	t3, 0x134(s2)
      2e: 0000         	unimp
      30: 0504         	addi	s1, sp, 0x280
      32: 0200         	addi	s0, sp, 0x100
      34: 490e0317     	auipc	t1, 0x490e0
      38: 05000013     	li	zero, 0x50
      3c: 0034         	addi	a3, sp, 0x8
      3e: 1702         	slli	a4, a4, 0x20
      40: 13490e03     	lb	t3, 0x134(s2)
      44: 0000         	unimp
      46: 2e06         	fld	ft8, 0x40(sp)
      48: 1101         	addi	sp, sp, -0x20
      4a: 1201         	addi	tp, tp, -0x20
      4c: 4006         	<unknown>
      4e: 0318         	addi	a4, sp, 0x180
      50: 270e         	fld	fa4, 0xc0(sp)
      52: 3619         	addiw	a2, a2, -0x1a
      54: 0013490b     	<unknown>
      58: 0700         	addi	s0, sp, 0x380
      5a: 0024         	addi	s1, sp, 0x8
      5c: 0b3e0e03     	lb	t3, 0xb3(t3)
      60: 00000b0b     	<unknown>
      64: 0f08         	addi	a0, sp, 0x390
      66: 0000         	unimp
      68: 0900         	addi	s0, sp, 0x90
      6a: 1349000f     	<unknown>
      6e: 0000         	unimp
      70: 00           	<unknown>

Disassembly of section .debug_info:

0000000000000000 <.debug_info>:
       0: 0175         	addi	sp, sp, 0x1d
       2: 0000         	unimp
       4: 0004         	<unknown>
       6: 0000         	unimp
       8: 0000         	unimp
       a: 0108         	addi	a0, sp, 0x80
       c: 011d         	addi	sp, sp, 0x7
       e: 0000         	unimp
      10: 0002         	c.slli64	zero
      12: 00e2         	slli	ra, ra, 0x18
      14: 0000         	unimp
      16: 0000         	unimp
      18: 0000         	unimp
      1a: 0000002b     	<unknown>
		...
      2a: 1002         	c.slli	zero, 0x20
      2c: 0001         	nop
      2e: 0080         	addi	s0, sp, 0x40
      30: 0000         	unimp
      32: d400         	sw	s0, 0x28(s0)
      34: 0100000b     	<unknown>
      38: 2152         	fld	ft2, 0x110(sp)
      3a: 0001         	nop
      3c: 6400         	ld	s0, 0x8(s0)
      3e: 0001         	nop
      40: 0300         	addi	s0, sp, 0x180
      42: 00000037     	lui	zero, 0x0
      46: 0000016b     	<unknown>
      4a: 0004         	<unknown>
      4c: 0000         	unimp
      4e: 1d00         	addi	s0, sp, 0x2b0
      50: 0000         	unimp
      52: 6b00         	ld	s0, 0x10(a4)
      54: 0001         	nop
      56: 0400         	addi	s0, sp, 0x200
      58: 013d         	addi	sp, sp, 0xf
      5a: 0000         	unimp
      5c: 00000137     	lui	sp, 0x0
      60: 0164         	addi	s1, sp, 0x8c
      62: 0000         	unimp
      64: 00002403     	lw	s0, 0x0(zero)
      68: 6b00         	ld	s0, 0x10(a4)
      6a: 0001         	nop
      6c: 0500         	addi	s0, sp, 0x280
      6e: 0170         	addi	a2, sp, 0x8c
      70: 0000         	unimp
      72: 0149         	addi	sp, sp, 0x12
      74: 0000         	unimp
      76: 0164         	addi	s1, sp, 0x8c
      78: 0000         	unimp
      7a: ef05         	bnez	a4, 0xb2 <.debug_loc+0xb2>
      7c: 0001         	nop
      7e: ab00         	fsd	fs0, 0x10(a4)
      80: 0000         	unimp
      82: 6400         	ld	s0, 0x8(s0)
      84: 0001         	nop
      86: 0500         	addi	s0, sp, 0x280
      88: 000002a7     	vse8.v	v5, (zero), v0.t
      8c: 0140         	addi	s0, sp, 0x84
      8e: 0000         	unimp
      90: 0000016b     	<unknown>
      94: 5705         	li	a4, -0x1f
      96: 0004         	<unknown>
      98: 8200         	<unknown>
      9a: 0000         	unimp
      9c: 6400         	ld	s0, 0x8(s0)
      9e: 0001         	nop
      a0: 0500         	addi	s0, sp, 0x280
      a2: 0548         	addi	a0, sp, 0x284
      a4: 0000         	unimp
      a6: 00000043     	fmadd.s	ft0, ft0, ft0, ft0, rne
      aa: 0000016b     	<unknown>
      ae: e405         	bnez	s0, 0xd6 <.debug_loc+0xd6>
      b0: 0006         	c.slli	zero, 0x1
      b2: f700         	sd	s0, 0x28(a4)
      b4: 0000         	unimp
      b6: 6b00         	ld	s0, 0x10(a4)
      b8: 0001         	nop
      ba: 0500         	addi	s0, sp, 0x280
      bc: 0858         	addi	a4, sp, 0x14
      be: 0000         	unimp
      c0: 004c         	addi	a1, sp, 0x4
      c2: 0000         	unimp
      c4: 0000016b     	<unknown>
      c8: 0405         	addi	s0, s0, 0x1
      ca: 0009         	c.nop	0x2
      cc: 0000         	unimp
      ce: 0000         	unimp
      d0: 6b00         	ld	s0, 0x10(a4)
      d2: 0001         	nop
      d4: 0500         	addi	s0, sp, 0x280
      d6: 0938         	addi	a4, sp, 0x98
      d8: 0000         	unimp
      da: 0022         	c.slli	zero, 0x8
      dc: 0000         	unimp
      de: 016c         	addi	a1, sp, 0x8c
      e0: 0000         	unimp
      e2: 7005         	c.lui	zero, -0x1f
      e4: 000a         	c.slli	zero, 0x2
      e6: bf00         	fsd	fs0, 0x38(a4)
      e8: 0000         	unimp
      ea: 6b00         	ld	s0, 0x10(a4)
      ec: 0001         	nop
      ee: 0500         	addi	s0, sp, 0x280
      f0: 0b44         	addi	s1, sp, 0x194
      f2: 0000         	unimp
      f4: 0100         	addi	s0, sp, 0x80
      f6: 0000         	unimp
      f8: 0000016b     	<unknown>
      fc: 8c05         	sub	s0, s0, s1
      fe: 2d00000b     	<unknown>
     102: 0000         	unimp
     104: 6c00         	ld	s0, 0x18(s0)
     106: 0001         	nop
     108: 0500         	addi	s0, sp, 0x280
     10a: 0cc4         	addi	s1, sp, 0x254
     10c: 0000         	unimp
     10e: 00000067     	jr	zero <.debug_loc>
     112: 0000016b     	<unknown>
     116: fc05         	bnez	s0, 0x4e <.debug_loc+0x4e>
     118: 000d         	c.nop	0x3
     11a: 2f00         	fld	fs0, 0x18(a4)
     11c: 0000         	unimp
     11e: 6c00         	ld	s0, 0x18(s0)
     120: 0001         	nop
     122: 0000         	unimp
     124: 4806         	lw	a6, 0x40(sp)
     126: 000d         	c.nop	0x3
     128: 0080         	addi	s0, sp, 0x40
     12a: 0000         	unimp
     12c: 3c00         	fld	fs0, 0x38(s0)
     12e: 0000         	unimp
     130: 0100         	addi	s0, sp, 0x80
     132: 9652         	add	a2, a2, s4
     134: 0000         	unimp
     136: 0300         	addi	s0, sp, 0x180
     138: 0164         	addi	s1, sp, 0x8c
     13a: 0000         	unimp
     13c: 3404         	fld	fs1, 0x28(s0)
     13e: 2f00000f     	<unknown>
     142: 0000         	unimp
     144: 6c00         	ld	s0, 0x18(s0)
     146: 0001         	nop
     148: 0400         	addi	s0, sp, 0x200
     14a: 0f7a         	slli	t5, t5, 0x1e
     14c: 0000         	unimp
     14e: 0022         	c.slli	zero, 0x8
     150: 0000         	unimp
     152: 016c         	addi	a1, sp, 0x8c
     154: 0000         	unimp
     156: c004         	sw	s1, 0x0(s0)
     158: 2d00000f     	<unknown>
     15c: 0000         	unimp
     15e: 6c00         	ld	s0, 0x18(s0)
     160: 0001         	nop
     162: 0000         	unimp
     164: 00003107     	fld	ft2, 0x0(zero)
     168: 0500         	addi	s0, sp, 0x280
     16a: 0804         	addi	s1, sp, 0x10
     16c: 7109         	addi	sp, sp, -0x180
     16e: 0001         	nop
     170: 0700         	addi	s0, sp, 0x380
     172: 00da         	slli	ra, ra, 0x16
     174: 0000         	unimp
     176: 0404         	addi	s1, sp, 0x200
     178: 00           	<unknown>

Disassembly of section .debug_ranges:

0000000000000000 <.debug_ranges>:
       0: 0110         	addi	a2, sp, 0x80
       2: 8000         	<unknown>
       4: 0000         	unimp
       6: 0000         	unimp
       8: 0ce4         	addi	s1, sp, 0x25c
       a: 8000         	<unknown>
       c: 0000         	unimp
       e: 0000         	unimp
      10: 0d48         	addi	a0, sp, 0x294
      12: 8000         	<unknown>
      14: 0000         	unimp
      16: 0000         	unimp
      18: 0d84         	addi	s1, sp, 0x2d0
      1a: 8000         	<unknown>
		...

Disassembly of section .debug_str:

0000000000000000 <.debug_str>:
       0: 6466         	ld	s0, 0x58(sp)
       2: 7270746f     	jal	s0, 0x7f28 <.debug_loc+0x7f28>
       6: 6375646f     	jal	s0, 0x56e3c <.debug_loc+0x56e3c>
       a: 2e74         	fld	fa3, 0xd8(a2)
       c: 5f61         	li	t5, -0x8
       e: 6168         	ld	a0, 0xc0(a0)
      10: 646e         	ld	s0, 0xd8(sp)
      12: 656c         	ld	a1, 0xc8(a0)
      14: 735f 7274 6469       	<unknown>
      1a: 7365         	lui	t1, 0xffff9
      1c: 6100         	ld	s0, 0x0(a0)
      1e: 6772         	ld	a4, 0x118(sp)
      20: 00610073     	<unknown>
      24: 6572         	ld	a0, 0x118(sp)
      26: 746c7573     	csrrci	a0, 0x746, 0x18
      2a: 2e00         	fld	fs0, 0x18(a2)
      2c: 6200         	ld	s0, 0x0(a2)
      2e: 6300         	ld	s0, 0x0(a4)
      30: 6900         	ld	s0, 0x10(a0)
      32: 746e         	ld	s0, 0xf8(sp)
      34: 73003233     	<unknown>
      38: 6c65         	lui	s8, 0x19
      3a: 5f66         	lw	t5, 0x78(sp)
      3c: 6168         	ld	a0, 0xc0(a0)
      3e: 646e         	ld	s0, 0xd8(sp)
      40: 656c         	ld	a1, 0xc8(a0)
      42: 6200         	ld	s0, 0x0(a2)
      44: 685f 6e61 6c64       	<unknown>
      4a: 0065         	c.nop	0x19
      4c: 6466         	ld	s0, 0x58(sp)
      4e: 7270746f     	jal	s0, 0x7f74 <.debug_loc+0x7f74>
      52: 6375646f     	jal	s0, 0x56e88 <.debug_loc+0x56e88>
      56: 2e74         	fld	fa3, 0xd8(a2)
      58: 5f61         	li	t5, -0x8
      5a: 6168         	ld	a0, 0xc0(a0)
      5c: 646e         	ld	s0, 0xd8(sp)
      5e: 656c         	ld	a1, 0xc8(a0)
      60: 735f 6168 6570       	<unknown>
      66: 6600         	ld	s0, 0x8(a2)
      68: 6f64         	ld	s1, 0xd8(a4)
      6a: 7074         	ld	a3, 0xe0(s0)
      6c: 6f72         	ld	t5, 0x118(sp)
      6e: 7564         	ld	s1, 0xe8(a0)
      70: 632e7463     	bgeu	t3, s2, 0x698 <.debug_loc+0x698>
      74: 685f 6e61 6c64       	<unknown>
      7a: 5f65         	li	t5, -0x7
      7c: 70616873     	csrrsi	a6, 0x706, 0x2
      80: 0065         	c.nop	0x19
      82: 61685f63     	bge	a6, s6, 0x6a0 <.debug_loc+0x6a0>
      86: 646e         	ld	s0, 0xd8(sp)
      88: 656c         	ld	a1, 0xc8(a0)
      8a: 742e         	ld	s0, 0xe8(sp)
      8c: 7079         	c.lui	zero, -0x2
      8e: 5f65         	li	t5, -0x7
      90: 6e69         	lui	t3, 0x1a
      92: 6564         	ld	s1, 0xc8(a0)
      94: 0078         	addi	a4, sp, 0xc
      96: 6466         	ld	s0, 0x58(sp)
      98: 7270746f     	jal	s0, 0x7fbe <.debug_loc+0x7fbe>
      9c: 6375646f     	jal	s0, 0x56ed2 <.debug_loc+0x56ed2>
      a0: 5f74         	lw	a3, 0x7c(a4)
      a2: 706d6f63     	bltu	s10, t1, 0x7c0 <.debug_loc+0x7c0>
      a6: 7475         	lui	s0, 0xffffd
      a8: 5f65         	li	t5, -0x7
      aa: 6200         	ld	s0, 0x0(a2)
      ac: 685f 6e61 6c64       	<unknown>
      b2: 2e65         	addiw	t3, t3, 0x19
      b4: 7974         	ld	a3, 0xf0(a0)
      b6: 6570         	ld	a2, 0xc8(a0)
      b8: 695f 646e 7865       	<unknown>
      be: 6600         	ld	s0, 0x8(a2)
      c0: 6f64         	ld	s1, 0xd8(a4)
      c2: 7074         	ld	a3, 0xe0(s0)
      c4: 6f72         	ld	t5, 0x118(sp)
      c6: 7564         	ld	s1, 0xe8(a0)
      c8: 622e7463     	bgeu	t3, sp, 0x6f0 <.debug_loc+0x6f0>
      cc: 685f 6e61 6c64       	<unknown>
      d2: 5f65         	li	t5, -0x7
      d4: 70616873     	csrrsi	a6, 0x706, 0x2
      d8: 0065         	c.nop	0x19
      da: 6c66         	ld	s8, 0x58(sp)
      dc: 3374616f     	jal	sp, 0x46c12 <.debug_loc+0x46c12>
      e0: 0032         	c.slli	zero, 0xc
      e2: 5249         	li	tp, -0xe
      e4: 6f4d         	lui	t5, 0x13
      e6: 7564         	ld	s1, 0xe8(a0)
      e8: 656c         	ld	a1, 0xc8(a0)
      ea: 432e         	lw	t1, 0xc8(sp)
      ec: 4765646f     	jal	s0, 0x56562 <.debug_loc+0x56562>
      f0: 6e65         	lui	t3, 0x19
      f2: 4c4c         	lw	a1, 0x1c(s0)
      f4: 4d56         	lw	s10, 0x54(sp)
      f6: 6300         	ld	s0, 0x0(a4)
      f8: 685f 6e61 6c64       	<unknown>
      fe: 0065         	c.nop	0x19
     100: 6466         	ld	s0, 0x58(sp)
     102: 7270746f     	jal	s0, 0x8028 <.debug_loc+0x8028>
     106: 6375646f     	jal	s0, 0x56f3c <.debug_loc+0x56f3c>
     10a: 2e74         	fld	fa3, 0xd8(a2)
     10c: 5f62         	lw	t5, 0x38(sp)
     10e: 6168         	ld	a0, 0xc0(a0)
     110: 646e         	ld	s0, 0xd8(sp)
     112: 656c         	ld	a1, 0xc8(a0)
     114: 735f 7274 6469       	<unknown>
     11a: 7365         	lui	t1, 0xffff9
     11c: 5400         	lw	s0, 0x28(s0)
     11e: 4d56         	lw	s10, 0x54(sp)
     120: 5f00         	lw	s0, 0x38(a4)
     122: 745f 6d76 665f       	<unknown>
     128: 6966         	ld	s2, 0x58(sp)
     12a: 665f 6f64 7074       	<unknown>
     130: 6f72         	ld	t5, 0x118(sp)
     132: 7564         	ld	s1, 0xe8(a0)
     134: 6e007463     	bgeu	zero, zero, 0x81c <.debug_loc+0x81c>
     138: 6d75         	lui	s10, 0x1d
     13a: 615f 6772 0073       	<unknown>
     140: 5f61         	li	t5, -0x8
     142: 6168         	ld	a0, 0xc0(a0)
     144: 646e         	ld	s0, 0xd8(sp)
     146: 656c         	ld	a1, 0xc8(a0)
     148: 6100         	ld	s0, 0x0(a0)
     14a: 685f 6e61 6c64       	<unknown>
     150: 2e65         	addiw	t3, t3, 0x19
     152: 7974         	ld	a3, 0xf0(a0)
     154: 6570         	ld	a2, 0xc8(a0)
     156: 695f 646e 7865       	<unknown>
     15c: 00           	<unknown>

Disassembly of section .debug_pubnames:

0000000000000000 <.debug_pubnames>:
       0: 0041         	c.nop	0x10
       2: 0000         	unimp
       4: 0002         	c.slli64	zero
       6: 0000         	unimp
       8: 0000         	unimp
       a: 0179         	addi	sp, sp, 0x1e
       c: 0000         	unimp
       e: 002a         	c.slli	zero, 0xa
      10: 0000         	unimp
      12: 5f5f 7674 5f6d       	<unknown>
      18: 6666         	ld	a2, 0x58(sp)
      1a: 5f69         	li	t5, -0x6
      1c: 6466         	ld	s0, 0x58(sp)
      1e: 7270746f     	jal	s0, 0x7f44 <.debug_loc+0x7f44>
      22: 6375646f     	jal	s0, 0x56e58 <.debug_loc+0x56e58>
      26: 0074         	addi	a3, sp, 0xc
      28: 0124         	addi	s1, sp, 0x88
      2a: 0000         	unimp
      2c: 6466         	ld	s0, 0x58(sp)
      2e: 7270746f     	jal	s0, 0x7f54 <.debug_loc+0x7f54>
      32: 6375646f     	jal	s0, 0x56e68 <.debug_loc+0x56e68>
      36: 5f74         	lw	a3, 0x7c(a4)
      38: 706d6f63     	bltu	s10, t1, 0x756 <.debug_loc+0x756>
      3c: 7475         	lui	s0, 0xffffd
      3e: 5f65         	li	t5, -0x7
      40: 0000         	unimp
      42: 0000         	unimp
      44: 00           	<unknown>

Disassembly of section .debug_pubtypes:

0000000000000000 <.debug_pubtypes>:
       0: 0024         	addi	s1, sp, 0x8
       2: 0000         	unimp
       4: 0002         	c.slli64	zero
       6: 0000         	unimp
       8: 0000         	unimp
       a: 0179         	addi	sp, sp, 0x1e
       c: 0000         	unimp
       e: 0164         	addi	s1, sp, 0x8c
      10: 0000         	unimp
      12: 6e69         	lui	t3, 0x1a
      14: 3374         	fld	fa3, 0xe0(a4)
      16: 0032         	c.slli	zero, 0xc
      18: 0171         	addi	sp, sp, 0x1c
      1a: 0000         	unimp
      1c: 6c66         	ld	s8, 0x58(sp)
      1e: 3374616f     	jal	sp, 0x46b54 <.debug_loc+0x46b54>
      22: 0032         	c.slli	zero, 0xc
      24: 0000         	unimp
      26: 0000         	unimp

Disassembly of section .riscv.attributes:

0000000000000000 <.riscv.attributes>:
       0: df41         	beqz	a4, 0xffffffffffffff98 <timer+0xffffffff7fffea58>
       2: 0000         	unimp
       4: 7200         	ld	s0, 0x20(a2)
       6: 7369         	lui	t1, 0xffffa
       8: 01007663     	bgeu	zero, a6, 0x14 <.debug_loc+0x14>
       c: 00d5         	addi	ra, ra, 0x15
       e: 0000         	unimp
      10: 1004         	addi	s1, sp, 0x20
      12: 7205         	lui	tp, 0xfffe1
      14: 3676         	fld	fa2, 0x178(sp)
      16: 6934         	ld	a3, 0x50(a0)
      18: 7032         	<unknown>
      1a: 5f31         	li	t5, -0x14
      1c: 326d         	addiw	tp, tp, -0x5
      1e: 3070         	fld	fa2, 0xe0(s0)
      20: 615f 7032 5f31       	<unknown>
      26: 3266         	fld	ft4, 0x78(sp)
      28: 3270         	fld	fa2, 0xe0(a2)
      2a: 645f 7032 5f32       	<unknown>
      30: 30703263     	<unknown>
      34: 765f 7031 5f30       	<unknown>
      3a: 697a         	ld	s2, 0x198(sp)
      3c: 32727363     	bgeu	tp, t2, 0x362 <.debug_loc+0x362>
      40: 3070         	fld	fa2, 0xe0(s0)
      42: 7a5f 6669 6e65       	<unknown>
      48: 32696563     	bltu	s2, t1, 0x372 <.debug_loc+0x372>
      4c: 3070         	fld	fa2, 0xe0(s0)
      4e: 7a5f 6d6d 6c75       	<unknown>
      54: 7031         	c.lui	zero, -0x14
      56: 5f30         	lw	a2, 0x78(a4)
      58: 617a         	ld	sp, 0x198(sp)
      5a: 6d61         	lui	s10, 0x18
      5c: 3070316f     	jal	sp, 0x3b62 <.debug_loc+0x3b62>
      60: 7a5f 6c61 7372       	<unknown>
      66: 30703163     	<unknown>
      6a: 7a5f 6866 7031       	<unknown>
      70: 5f30         	lw	a2, 0x78(a4)
      72: 667a         	ld	a2, 0x198(sp)
      74: 6d68         	ld	a0, 0xd8(a0)
      76: 6e69         	lui	t3, 0x1a
      78: 7031         	c.lui	zero, -0x14
      7a: 5f30         	lw	a2, 0x78(a4)
      7c: 767a         	ld	a2, 0x1b8(sp)
      7e: 3365         	addiw	t1, t1, -0x7
      80: 6632         	ld	a2, 0x108(sp)
      82: 7031         	c.lui	zero, -0x14
      84: 5f30         	lw	a2, 0x78(a4)
      86: 767a         	ld	a2, 0x1b8(sp)
      88: 3365         	addiw	t1, t1, -0x7
      8a: 7832         	ld	a6, 0x128(sp)
      8c: 7031         	c.lui	zero, -0x14
      8e: 5f30         	lw	a2, 0x78(a4)
      90: 767a         	ld	a2, 0x1b8(sp)
      92: 3665         	addiw	a2, a2, -0x7
      94: 6434         	ld	a3, 0x48(s0)
      96: 7031         	c.lui	zero, -0x14
      98: 5f30         	lw	a2, 0x78(a4)
      9a: 767a         	ld	a2, 0x1b8(sp)
      9c: 3665         	addiw	a2, a2, -0x7
      9e: 6634         	ld	a3, 0x48(a2)
      a0: 7031         	c.lui	zero, -0x14
      a2: 5f30         	lw	a2, 0x78(a4)
      a4: 767a         	ld	a2, 0x1b8(sp)
      a6: 3665         	addiw	a2, a2, -0x7
      a8: 7834         	ld	a3, 0x70(s0)
      aa: 7031         	c.lui	zero, -0x14
      ac: 5f30         	lw	a2, 0x78(a4)
      ae: 767a         	ld	a2, 0x1b8(sp)
      b0: 6866         	ld	a6, 0x58(sp)
      b2: 7031         	c.lui	zero, -0x14
      b4: 5f30         	lw	a2, 0x78(a4)
      b6: 767a         	ld	a2, 0x1b8(sp)
      b8: 6866         	ld	a6, 0x58(sp)
      ba: 696d         	lui	s2, 0x1b
      bc: 316e         	fld	ft2, 0xf8(sp)
      be: 3070         	fld	fa2, 0xe0(s0)
      c0: 7a5f 6c76 3231       	<unknown>
      c6: 6238         	ld	a4, 0x40(a2)
      c8: 7031         	c.lui	zero, -0x14
      ca: 5f30         	lw	a2, 0x78(a4)
      cc: 767a         	ld	a2, 0x1b8(sp)
      ce: 336c         	fld	fa1, 0xe0(a4)
      d0: 6232         	ld	tp, 0x108(sp)
      d2: 7031         	c.lui	zero, -0x14
      d4: 5f30         	lw	a2, 0x78(a4)
      d6: 767a         	ld	a2, 0x1b8(sp)
      d8: 366c         	fld	fa1, 0xe8(a2)
      da: 6234         	ld	a3, 0x40(a2)
      dc: 7031         	c.lui	zero, -0x14
      de: 0030         	addi	a2, sp, 0x8

Disassembly of section .debug_line:

0000000000000000 <.debug_line>:
       0: 005d         	c.nop	0x17
       2: 0000         	unimp
       4: 0004         	<unknown>
       6: 002c         	addi	a1, sp, 0x8
       8: 0000         	unimp
       a: 0101         	c.addi	sp, 0x0
       c: fb01         	bnez	a4, 0xffffffffffffff1c <timer+0xffffffff7fffe9dc>
       e: 0d0e         	slli	s10, s10, 0x3
      10: 0100         	addi	s0, sp, 0x80
      12: 0101         	c.addi	sp, 0x0
      14: 0001         	nop
      16: 0000         	unimp
      18: 0001         	nop
      1a: 0100         	addi	s0, sp, 0x80
      1c: 4900         	lw	s0, 0x10(a0)
      1e: 4d52         	lw	s10, 0x14(sp)
      20: 6c75646f     	jal	s0, 0x56ee6 <.debug_loc+0x56ee6>
      24: 2e65         	addiw	t3, t3, 0x19
      26: 65646f43     	<unknown>
      2a: 4c6e6547     	<unknown>
      2e: 564c         	lw	a1, 0x2c(a2)
      30: 004d         	c.nop	0x13
      32: 0000         	unimp
      34: 0000         	unimp
      36: 0900         	addi	s0, sp, 0x90
      38: 1002         	c.slli	zero, 0x20
      3a: 0001         	nop
      3c: 0080         	addi	s0, sp, 0x40
      3e: 0000         	unimp
      40: 1100         	addi	s0, sp, 0xa0
      42: 030a         	slli	t1, t1, 0x2
      44: 0900         	addi	s0, sp, 0x90
      46: 0008         	<unknown>
      48: 0901         	c.addi	s2, 0x0
      4a: 0bcc         	addi	a1, sp, 0x1d4
      4c: 0100         	addi	s0, sp, 0x80
      4e: 0001         	nop
      50: 0209         	addi	tp, tp, 0x2
      52: 0d48         	addi	a0, sp, 0x294
      54: 8000         	<unknown>
      56: 0000         	unimp
      58: 0000         	unimp
      5a: 0911         	addi	s2, s2, 0x4
      5c: 003c         	addi	a5, sp, 0x8
      5e: 0100         	addi	s0, sp, 0x80
      60: 01           	<unknown>

Disassembly of section .symtab:

0000000000000000 <.symtab>:
		...
      18: 0001         	nop
      1a: 0000         	unimp
      1c: 0004         	<unknown>
      1e: fff1         	bnez	a5, 0xfffffffffffffffa <timer+0xffffffff7fffeaba>
		...
      30: 0008         	<unknown>
      32: 0000         	unimp
      34: 0000         	unimp
      36: 0001         	nop
      38: 0110         	addi	a2, sp, 0x80
      3a: 8000         	<unknown>
		...
      48: 0000000b     	<unknown>
      4c: 0002         	c.slli64	zero
      4e: 0001         	nop
      50: 0d48         	addi	a0, sp, 0x294
      52: 8000         	<unknown>
      54: 0000         	unimp
      56: 0000         	unimp
      58: 003c         	addi	a5, sp, 0x8
      5a: 0000         	unimp
      5c: 0000         	unimp
      5e: 0000         	unimp
      60: 0020         	addi	s0, sp, 0x8
      62: 0000         	unimp
      64: 0002         	c.slli64	zero
      66: 0001         	nop
      68: 0ce4         	addi	s1, sp, 0x25c
      6a: 8000         	<unknown>
      6c: 0000         	unimp
      6e: 0000         	unimp
      70: 0024         	addi	s1, sp, 0x8
      72: 0000         	unimp
      74: 0000         	unimp
      76: 0000         	unimp
      78: 00000033     	add	zero, zero, zero
      7c: 0002         	c.slli64	zero
      7e: 0001         	nop
      80: 0d08         	addi	a0, sp, 0x290
      82: 8000         	<unknown>
      84: 0000         	unimp
      86: 0000         	unimp
      88: 0040         	addi	s0, sp, 0x4
      8a: 0000         	unimp
      8c: 0000         	unimp
      8e: 0000         	unimp
      90: 00000047     	fmsub.s	ft0, ft0, ft0, ft0, rne
      94: 0000         	unimp
      96: 0001         	nop
      98: 0ce4         	addi	s1, sp, 0x25c
      9a: 8000         	<unknown>
		...
      a8: 004a         	c.slli	zero, 0x12
      aa: 0000         	unimp
      ac: 0000         	unimp
      ae: 0001         	nop
      b0: 0d08         	addi	a0, sp, 0x290
      b2: 8000         	<unknown>
		...
      c0: 004d         	c.nop	0x13
      c2: 0000         	unimp
      c4: 0000         	unimp
      c6: 0001         	nop
      c8: 0d48         	addi	a0, sp, 0x294
      ca: 8000         	<unknown>
		...
      d8: 0050         	addi	a2, sp, 0x4
      da: 0000         	unimp
      dc: 0000         	unimp
      de: 0002         	c.slli64	zero
      e0: 0e60         	addi	s0, sp, 0x31c
      e2: 8000         	<unknown>
		...
      f0: 00000053     	fadd.s	ft0, ft0, ft0, rne
      f4: 0000         	unimp
      f6: 0002         	c.slli64	zero
      f8: 0e6a         	slli	t3, t3, 0x1a
      fa: 8000         	<unknown>
		...
     108: 0056         	c.slli	zero, 0x15
     10a: 0000         	unimp
     10c: 0000         	unimp
     10e: 0002         	c.slli64	zero
     110: 0e74         	addi	a3, sp, 0x31c
     112: 8000         	<unknown>
		...
     120: 0059         	c.nop	0x16
     122: 0000         	unimp
     124: 0000         	unimp
     126: 0002         	c.slli64	zero
     128: 0e76         	slli	t3, t3, 0x1d
     12a: 8000         	<unknown>
		...
     138: 005c         	addi	a5, sp, 0x4
     13a: 0000         	unimp
     13c: 0000         	unimp
     13e: 0002         	c.slli64	zero
     140: 0e81         	c.addi	t4, 0x0
     142: 8000         	<unknown>
		...
     150: 005f 0000 0000       	<unknown>
     156: 0002         	c.slli64	zero
     158: 0e94         	addi	a3, sp, 0x350
     15a: 8000         	<unknown>
		...
     168: 0062         	c.slli	zero, 0x18
     16a: 0000         	unimp
     16c: 0000         	unimp
     16e: 0002         	c.slli64	zero
     170: 0eed         	addi	t4, t4, 0x1b
     172: 8000         	<unknown>
		...
     180: 0065         	c.nop	0x19
     182: 0000         	unimp
     184: 0000         	unimp
     186: 0002         	c.slli64	zero
     188: 80000eef     	jal	t4, 0xfffffffffff00188 <timer+0xffffffff7fefec48>
		...
     198: 0068         	addi	a0, sp, 0xc
     19a: 0000         	unimp
     19c: 0000         	unimp
     19e: 0002         	c.slli64	zero
     1a0: 0f04         	addi	s1, sp, 0x390
     1a2: 8000         	<unknown>
		...
     1b0: 0000006b     	<unknown>
     1b4: 0000         	unimp
     1b6: 0002         	c.slli64	zero
     1b8: 0f22         	slli	t5, t5, 0x8
     1ba: 8000         	<unknown>
		...
     1c8: 006e         	c.slli	zero, 0x1b
     1ca: 0000         	unimp
     1cc: 0000         	unimp
     1ce: 0002         	c.slli64	zero
     1d0: 0f24         	addi	s1, sp, 0x398
     1d2: 8000         	<unknown>
		...
     1e0: 0071         	c.nop	0x1c
     1e2: 0000         	unimp
     1e4: 0000         	unimp
     1e6: 0002         	c.slli64	zero
     1e8: 80000f33     	<unknown>
		...
     1f8: 0074         	addi	a3, sp, 0xc
     1fa: 0000         	unimp
     1fc: 0000         	unimp
     1fe: 0002         	c.slli64	zero
     200: 0f3a         	slli	t5, t5, 0xe
     202: 8000         	<unknown>
		...
     210: 00000077     	<unknown>
     214: 0000         	unimp
     216: 0002         	c.slli64	zero
     218: 0f3c         	addi	a5, sp, 0x398
     21a: 8000         	<unknown>
		...
     228: 007a         	c.slli	zero, 0x1e
     22a: 0000         	unimp
     22c: 0000         	unimp
     22e: 0002         	c.slli64	zero
     230: 0f3e         	slli	t5, t5, 0xf
     232: 8000         	<unknown>
		...
     240: 007d         	c.nop	0x1f
     242: 0000         	unimp
     244: 0000         	unimp
     246: 0002         	c.slli64	zero
     248: 0f49         	addi	t5, t5, 0x12
     24a: 8000         	<unknown>
		...
     258: 0080         	addi	s0, sp, 0x40
     25a: 0000         	unimp
     25c: 0000         	unimp
     25e: 0002         	c.slli64	zero
     260: 0f55         	addi	t5, t5, 0x15
     262: 8000         	<unknown>
		...
     270: 00000083     	lb	ra, 0x0(zero)
     274: 0000         	unimp
     276: 0002         	c.slli64	zero
     278: 80000f57     	vsaddu.vv	v30, v0, v0, v0.t
		...
     288: 0086         	slli	ra, ra, 0x1
     28a: 0000         	unimp
     28c: 0000         	unimp
     28e: 0002         	c.slli64	zero
     290: 80000f6b     	<unknown>
		...
     2a0: 0089         	addi	ra, ra, 0x2
     2a2: 0000         	unimp
     2a4: 0000         	unimp
     2a6: 0002         	c.slli64	zero
     2a8: 0f80         	addi	s0, sp, 0x3d0
     2aa: 8000         	<unknown>
		...
     2b8: 008c         	addi	a1, sp, 0x40
     2ba: 0000         	unimp
     2bc: 0000         	unimp
     2be: 0002         	c.slli64	zero
     2c0: 0f88         	addi	a0, sp, 0x3d0
     2c2: 8000         	<unknown>
		...
     2d0: 0000008f     	<unknown>
     2d4: 0000         	unimp
     2d6: 0002         	c.slli64	zero
     2d8: 80000fa3     	sb	zero, -0x7e1(zero)
		...
     2e8: 0092         	slli	ra, ra, 0x4
     2ea: 0000         	unimp
     2ec: 0000         	unimp
     2ee: 0002         	c.slli64	zero
     2f0: 80000fa7     	vsseg5e8.v	v31, (zero), v0.t
		...
     300: 0095         	addi	ra, ra, 0x5
     302: 0000         	unimp
     304: 0000         	unimp
     306: 0002         	c.slli64	zero
     308: 0fa9         	addi	t6, t6, 0xa
     30a: 8000         	<unknown>
		...
     318: 0098         	addi	a4, sp, 0x40
     31a: 0000         	unimp
     31c: 0000         	unimp
     31e: 0002         	c.slli64	zero
     320: 80000fab     	<unknown>
		...
     330: 0000009b     	sext.w	ra, zero
     334: 0000         	unimp
     336: 0002         	c.slli64	zero
     338: 0fc2         	slli	t6, t6, 0x10
     33a: 8000         	<unknown>
		...
     348: 009e         	slli	ra, ra, 0x7
     34a: 0000         	unimp
     34c: 0000         	unimp
     34e: 0002         	c.slli64	zero
     350: 0fe4         	addi	s1, sp, 0x3dc
     352: 8000         	<unknown>
		...
     360: 00a1         	addi	ra, ra, 0x8
     362: 0000         	unimp
     364: 0000         	unimp
     366: 0002         	c.slli64	zero
     368: 1008         	addi	a0, sp, 0x20
     36a: 8000         	<unknown>
		...
     378: 00a4         	addi	s1, sp, 0x48
     37a: 0000         	unimp
     37c: 0000         	unimp
     37e: 0002         	c.slli64	zero
     380: 102c         	addi	a1, sp, 0x28
     382: 8000         	<unknown>
		...
     390: 000000a7     	vse8.v	v1, (zero), v0.t
     394: 0000         	unimp
     396: 0002         	c.slli64	zero
     398: 1038         	addi	a4, sp, 0x28
     39a: 8000         	<unknown>
		...
     3a8: 00aa         	slli	ra, ra, 0xa
     3aa: 0000         	unimp
     3ac: 0000         	unimp
     3ae: 0002         	c.slli64	zero
     3b0: 80001047     	fmsub.s	ft0, ft0, ft0, fa6, rtz
		...
     3c0: 00ad         	addi	ra, ra, 0xb
     3c2: 0000         	unimp
     3c4: 0000         	unimp
     3c6: 0002         	c.slli64	zero
     3c8: 105f 8000 0000       	<unknown>
		...
     3d6: 0000         	unimp
     3d8: 00b0         	addi	a2, sp, 0x48
     3da: 0000         	unimp
     3dc: 0000         	unimp
     3de: 0002         	c.slli64	zero
     3e0: 8000106b     	<unknown>
		...
     3f0: 000000b3     	add	ra, zero, zero
     3f4: 0000         	unimp
     3f6: 0002         	c.slli64	zero
     3f8: 80001077     	<unknown>
		...
     408: 00b6         	slli	ra, ra, 0xd
     40a: 0000         	unimp
     40c: 0000         	unimp
     40e: 0002         	c.slli64	zero
     410: 1080         	addi	s0, sp, 0x60
     412: 8000         	<unknown>
		...
     420: 00b9         	addi	ra, ra, 0xe
     422: 0000         	unimp
     424: 0000         	unimp
     426: 0002         	c.slli64	zero
     428: 8000108b     	<unknown>
		...
     438: 00bc         	addi	a5, sp, 0x48
     43a: 0000         	unimp
     43c: 0000         	unimp
     43e: 0002         	c.slli64	zero
     440: 108e         	slli	ra, ra, 0x23
     442: 8000         	<unknown>
		...
     450: 000000bf 00020000    	<unknown>
     458: 109c         	addi	a5, sp, 0x60
     45a: 8000         	<unknown>
		...
     468: 00c2         	slli	ra, ra, 0x10
     46a: 0000         	unimp
     46c: 0000         	unimp
     46e: 0002         	c.slli64	zero
     470: 800010a7     	fsh	ft0, -0x7ff(zero)
		...
     480: 00c5         	addi	ra, ra, 0x11
     482: 0000         	unimp
     484: 0000         	unimp
     486: 0002         	c.slli64	zero
     488: 10b5         	addi	ra, ra, -0x13
     48a: 8000         	<unknown>
		...
     498: 00c8         	addi	a0, sp, 0x44
     49a: 0000         	unimp
     49c: 0000         	unimp
     49e: 0002         	c.slli64	zero
     4a0: 10c0         	addi	s0, sp, 0x64
     4a2: 8000         	<unknown>
		...
     4b0: 000000cb     	fnmsub.s	ft1, ft0, ft0, ft0, rne
     4b4: 0000         	unimp
     4b6: 0008         	<unknown>
		...
     4c8: 00ce         	slli	ra, ra, 0x13
     4ca: 0000         	unimp
     4cc: 0000         	unimp
     4ce: 0009         	c.nop	0x2
		...
     4e0: 00d1         	addi	ra, ra, 0x14
     4e2: 0000         	unimp
     4e4: 0000         	unimp
     4e6: 000a         	c.slli	zero, 0x2
		...
     4f8: 00d4         	addi	a3, sp, 0x44
     4fa: 0000         	unimp
     4fc: 0000         	unimp
     4fe: 0000000b     	<unknown>
		...
     50e: 0000         	unimp
     510: 000000d7     	vadd.vv	v1, v0, v0, v0.t
     514: 0000         	unimp
     516: 000c         	<unknown>
     518: 011d         	addi	sp, sp, 0x7
		...
     526: 0000         	unimp
     528: 00da         	slli	ra, ra, 0x16
     52a: 0000         	unimp
     52c: 0000         	unimp
     52e: 000d         	c.nop	0x3
		...
     540: 00dd         	addi	ra, ra, 0x17
     542: 0000         	unimp
     544: 0000         	unimp
     546: 000e         	c.slli	zero, 0x3
		...
     558: 00e0         	addi	s0, sp, 0x4c
     55a: 0000         	unimp
     55c: 0000         	unimp
     55e: fff1         	bnez	a5, 0x53a <.debug_loc+0x53a>
		...
     570: 000000e3     	beqz	zero, 0xd70 <.debug_loc+0xd70>
     574: 0000         	unimp
     576: 10d00003     	lb	zero, 0x10d(zero)
     57a: 8000         	<unknown>
		...
     588: 00e6         	slli	ra, ra, 0x19
     58a: 0000         	unimp
     58c: 0000         	unimp
     58e: 0010         	<unknown>
		...
     5a0: 00e9         	addi	ra, ra, 0x1a
     5a2: 0000         	unimp
     5a4: 0004         	<unknown>
     5a6: fff1         	bnez	a5, 0x582 <.debug_loc+0x582>
		...
     5b8: 00fc         	addi	a5, sp, 0x4c
     5ba: 0000         	unimp
     5bc: 0000         	unimp
     5be: 0001         	nop
     5c0: 0d84         	addi	s1, sp, 0x2d0
     5c2: 8000         	<unknown>
		...
     5d0: 00ff 0000 0000 0001 0d86     	<unknown>
     5da: 8000         	<unknown>
		...
     5e8: 0102         	c.slli64	sp
     5ea: 0000         	unimp
     5ec: 0000         	unimp
     5ee: 0006         	c.slli	zero, 0x1
     5f0: 1280         	addi	s0, sp, 0x160
     5f2: 8000         	<unknown>
		...
     600: 0105         	addi	sp, sp, 0x1
     602: 0000         	unimp
     604: 0001         	nop
     606: 0006         	c.slli	zero, 0x1
     608: 1280         	addi	s0, sp, 0x160
     60a: 8000         	<unknown>
     60c: 0000         	unimp
     60e: 0000         	unimp
     610: 0004         	<unknown>
     612: 0000         	unimp
     614: 0000         	unimp
     616: 0000         	unimp
     618: 010c         	addi	a1, sp, 0x80
     61a: 0000         	unimp
     61c: 0001         	nop
     61e: 0006         	c.slli	zero, 0x1
     620: 12c0         	addi	s0, sp, 0x164
     622: 8000         	<unknown>
     624: 0000         	unimp
     626: 0000         	unimp
     628: 0008         	<unknown>
     62a: 0000         	unimp
     62c: 0000         	unimp
     62e: 0000         	unimp
     630: 0115         	addi	sp, sp, 0x5
     632: 0000         	unimp
     634: 0001         	nop
     636: 0006         	c.slli	zero, 0x1
     638: 1300         	addi	s0, sp, 0x1a0
     63a: 8000         	<unknown>
     63c: 0000         	unimp
     63e: 0000         	unimp
     640: 0008         	<unknown>
     642: 0000         	unimp
     644: 0000         	unimp
     646: 0000         	unimp
     648: 011d         	addi	sp, sp, 0x7
     64a: 0000         	unimp
     64c: 0001         	nop
     64e: 0006         	c.slli	zero, 0x1
     650: 1340         	addi	s0, sp, 0x1a4
     652: 8000         	<unknown>
     654: 0000         	unimp
     656: 0000         	unimp
     658: 0100         	addi	s0, sp, 0x80
     65a: 0000         	unimp
     65c: 0000         	unimp
     65e: 0000         	unimp
     660: 0124         	addi	s1, sp, 0x88
     662: 0000         	unimp
     664: 0001         	nop
     666: 0006         	c.slli	zero, 0x1
     668: 1440         	addi	s0, sp, 0x224
     66a: 8000         	<unknown>
     66c: 0000         	unimp
     66e: 0000         	unimp
     670: 0100         	addi	s0, sp, 0x80
     672: 0000         	unimp
     674: 0000         	unimp
     676: 0000         	unimp
     678: 0000012b     	<unknown>
     67c: 0000         	unimp
     67e: 00000007     	vle8.v	v0, (zero), v0.t
		...
     68e: 0000         	unimp
     690: 012e         	slli	sp, sp, 0xb
     692: 0000         	unimp
     694: 0000         	unimp
     696: fff1         	bnez	a5, 0x672 <.debug_loc+0x672>
		...
     6a8: 0131         	addi	sp, sp, 0xc
     6aa: 0000         	unimp
     6ac: 0000         	unimp
     6ae: 0001         	nop
     6b0: 0000         	unimp
     6b2: 8000         	<unknown>
		...
     6c0: 0134         	addi	a3, sp, 0x88
     6c2: 0000         	unimp
     6c4: 0000         	unimp
     6c6: 0001         	nop
     6c8: 000a         	c.slli	zero, 0x2
     6ca: 8000         	<unknown>
		...
     6d8: 0141         	addi	sp, sp, 0x10
     6da: 0000         	unimp
     6dc: 0000         	unimp
     6de: 0001         	nop
     6e0: 00d8         	addi	a4, sp, 0x44
     6e2: 8000         	<unknown>
		...
     6f0: 014d         	addi	sp, sp, 0x13
     6f2: 0000         	unimp
     6f4: 0000         	unimp
     6f6: fff1         	bnez	a5, 0x6d2 <.debug_loc+0x6d2>
		...
     708: 0150         	addi	a2, sp, 0x84
     70a: 0000         	unimp
     70c: 0004         	<unknown>
     70e: fff1         	bnez	a5, 0x6ea <.debug_loc+0x6ea>
		...
     720: 0159         	addi	sp, sp, 0x16
     722: 0000         	unimp
     724: 0000         	unimp
     726: 00000007     	vle8.v	v0, (zero), v0.t
		...
     736: 0000         	unimp
     738: 015c         	addi	a5, sp, 0x84
     73a: 0000         	unimp
     73c: 0000         	unimp
     73e: fff1         	bnez	a5, 0x71a <.debug_loc+0x71a>
		...
     750: 015f 0000 0004       	<unknown>
     756: fff1         	bnez	a5, 0x732 <.debug_loc+0x732>
		...
     768: 0168         	addi	a0, sp, 0x8c
     76a: 0000         	unimp
     76c: 0000         	unimp
     76e: 00000007     	vle8.v	v0, (zero), v0.t
		...
     77e: 0000         	unimp
     780: 0000016b     	<unknown>
     784: 0000         	unimp
     786: fff1         	bnez	a5, 0x762 <.debug_loc+0x762>
		...
     798: 016e         	slli	sp, sp, 0x1b
     79a: 0000         	unimp
     79c: 0004         	<unknown>
     79e: fff1         	bnez	a5, 0x77a <.debug_loc+0x77a>
		...
     7b0: 00000177     	<unknown>
     7b4: 0000         	unimp
     7b6: 00000007     	vle8.v	v0, (zero), v0.t
		...
     7c6: 0000         	unimp
     7c8: 017a         	slli	sp, sp, 0x1e
     7ca: 0000         	unimp
     7cc: 0000         	unimp
     7ce: fff1         	bnez	a5, 0x7aa <.debug_loc+0x7aa>
		...
     7e0: 017d         	addi	sp, sp, 0x1f
     7e2: 0000         	unimp
     7e4: 0004         	<unknown>
     7e6: fff1         	bnez	a5, 0x7c2 <.debug_loc+0x7c2>
		...
     7f8: 0184         	addi	s1, sp, 0xc0
     7fa: 0000         	unimp
     7fc: 0000         	unimp
     7fe: 00000007     	vle8.v	v0, (zero), v0.t
		...
     80e: 0000         	unimp
     810: 00000187     	vle8.v	v3, (zero), v0.t
     814: 0000         	unimp
     816: fff1         	bnez	a5, 0x7f2 <.debug_loc+0x7f2>
		...
     828: 018a         	slli	gp, gp, 0x2
     82a: 0000         	unimp
     82c: 0004         	<unknown>
     82e: fff1         	bnez	a5, 0x80a <.debug_loc+0x80a>
		...
     840: 0198         	addi	a4, sp, 0xc0
     842: 0000         	unimp
     844: 0000         	unimp
     846: 0001         	nop
     848: 0e14         	addi	a3, sp, 0x310
     84a: 8000         	<unknown>
		...
     858: 0000019b     	sext.w	gp, zero
     85c: 0000         	unimp
     85e: 00000007     	vle8.v	v0, (zero), v0.t
		...
     86e: 0000         	unimp
     870: 019e         	slli	gp, gp, 0x7
     872: 0000         	unimp
     874: 0000         	unimp
     876: fff1         	bnez	a5, 0x852 <.debug_loc+0x852>
		...
     888: 01a1         	addi	gp, gp, 0x8
     88a: 0000         	unimp
     88c: 0012         	c.slli	zero, 0x4
     88e: 0001         	nop
     890: 0110         	addi	a2, sp, 0x80
     892: 8000         	<unknown>
     894: 0000         	unimp
     896: 0000         	unimp
     898: 0bd4         	addi	a3, sp, 0x1d4
     89a: 0000         	unimp
     89c: 0000         	unimp
     89e: 0000         	unimp
     8a0: 000001b7     	lui	gp, 0x0
     8a4: 0012         	c.slli	zero, 0x4
     8a6: 0001         	nop
     8a8: 0d84         	addi	s1, sp, 0x2d0
     8aa: 8000         	<unknown>
     8ac: 0000         	unimp
     8ae: 0000         	unimp
     8b0: 0002         	c.slli64	zero
     8b2: 0000         	unimp
     8b4: 0000         	unimp
     8b6: 0000         	unimp
     8b8: 01d9         	addi	gp, gp, 0x16
     8ba: 0000         	unimp
     8bc: 0012         	c.slli	zero, 0x4
     8be: 0001         	nop
     8c0: 0e14         	addi	a3, sp, 0x310
     8c2: 8000         	<unknown>
     8c4: 0000         	unimp
     8c6: 0000         	unimp
     8c8: 0048         	addi	a0, sp, 0x4
     8ca: 0000         	unimp
     8cc: 0000         	unimp
     8ce: 0000         	unimp
     8d0: 01e4         	addi	s1, sp, 0xcc
     8d2: 0000         	unimp
     8d4: 0012         	c.slli	zero, 0x4
     8d6: 0001         	nop
     8d8: 0d86         	slli	s11, s11, 0x1
     8da: 8000         	<unknown>
     8dc: 0000         	unimp
     8de: 0000         	unimp
     8e0: 008e         	slli	ra, ra, 0x3
     8e2: 0000         	unimp
     8e4: 0000         	unimp
     8e6: 0000         	unimp
     8e8: 01e9         	addi	gp, gp, 0x1a
     8ea: 0000         	unimp
     8ec: 0010         	<unknown>
     8ee: 0001         	nop
     8f0: 0000         	unimp
     8f2: 8000         	<unknown>
		...
     900: 01f0         	addi	a2, sp, 0xcc
     902: 0000         	unimp
     904: 0010         	<unknown>
     906: 0001         	nop
     908: 00f0         	addi	a2, sp, 0x4c
     90a: 8000         	<unknown>
		...
     918: 01f5         	addi	gp, gp, 0x1d
     91a: 0000         	unimp
     91c: 0010         	<unknown>
     91e: 0001         	nop
     920: 0100         	addi	s0, sp, 0x80
     922: 8000         	<unknown>
		...
     930: 000001fb     	<unknown>
     934: 0020         	addi	s0, sp, 0x8
		...
     946: 0000         	unimp
     948: 0209         	addi	tp, tp, 0x2
     94a: 0000         	unimp
     94c: 0020         	addi	s0, sp, 0x8
		...
     95e: 0000         	unimp
     960: 00000217     	auipc	tp, 0x0
     964: 0020         	addi	s0, sp, 0x8
		...
     976: 0000         	unimp
     978: 00000223     	sb	zero, 0x4(zero)
     97c: 0010         	<unknown>
     97e: 0004         	<unknown>
     980: 1a60         	addi	s0, sp, 0x13c
     982: 8000         	<unknown>
		...
     990: 0235         	addi	tp, tp, 0xd
     992: 0000         	unimp
     994: 0010         	<unknown>
     996: fff1         	bnez	a5, 0x972 <.debug_loc+0x972>
     998: 0010         	<unknown>
     99a: d000         	sw	s0, 0x20(s0)
		...
     9a8: 024a         	slli	tp, tp, 0x12
     9aa: 0000         	unimp
     9ac: 0010         	<unknown>
     9ae: fff1         	bnez	a5, 0x98a <.debug_loc+0x98a>
     9b0: 0000         	unimp
     9b2: d000         	sw	s0, 0x20(s0)
		...
     9c0: 025a         	slli	tp, tp, 0x16
     9c2: 0000         	unimp
     9c4: 0010         	<unknown>
     9c6: fff1         	bnez	a5, 0x9a2 <.debug_loc+0x9a2>
     9c8: 0000         	unimp
     9ca: c000         	sw	s0, 0x0(s0)
		...
     9d8: 0264         	addi	s1, sp, 0x10c
     9da: 0000         	unimp
     9dc: 0010         	<unknown>
     9de: 0005         	c.nop	0x1
     9e0: 1260         	addi	s0, sp, 0x12c
     9e2: 8000         	<unknown>
		...
     9f0: 0270         	addi	a2, sp, 0x10c
     9f2: 0000         	unimp
     9f4: 0010         	<unknown>
     9f6: 0005         	c.nop	0x1
     9f8: 1260         	addi	s0, sp, 0x12c
     9fa: 8000         	<unknown>
		...
     a08: 027a         	slli	tp, tp, 0x1e
     a0a: 0000         	unimp
     a0c: 0010         	<unknown>
     a0e: 0006         	c.slli	zero, 0x1
     a10: 1540         	addi	s0, sp, 0x2a4
     a12: 8000         	<unknown>
		...
     a20: 0280         	addi	s0, sp, 0x140
     a22: 0000         	unimp
     a24: 0010         	<unknown>
     a26: fff1         	bnez	a5, 0xa02 <.debug_loc+0xa02>
     a28: 1560         	addi	s0, sp, 0x2ac
     a2a: 8000         	<unknown>
		...
     a38: 028e         	slli	t0, t0, 0x3
     a3a: 0000         	unimp
     a3c: 0010         	<unknown>
     a3e: fff1         	bnez	a5, 0xa1a <.debug_loc+0xa1a>
     a40: 0008         	<unknown>
     a42: d000         	sw	s0, 0x20(s0)
		...
     a50: 02a5         	addi	t0, t0, 0x9
     a52: 0000         	unimp
     a54: 0010         	<unknown>
     a56: fff1         	bnez	a5, 0xa32 <.debug_loc+0xa32>
     a58: 0018         	<unknown>
     a5a: d000         	sw	s0, 0x20(s0)
		...
     a68: 000002b3     	add	t0, zero, zero
     a6c: 0010         	<unknown>
     a6e: fff1         	bnez	a5, 0xa4a <.debug_loc+0xa4a>
     a70: 0020         	addi	s0, sp, 0x8
     a72: d000         	sw	s0, 0x20(s0)
		...

Disassembly of section .shstrtab:

0000000000000000 <.shstrtab>:
       0: 2e00         	fld	fs0, 0x18(a2)
       2: 6574         	ld	a3, 0xc8(a0)
       4: 7478         	ld	a4, 0xe8(s0)
       6: 2e00         	fld	fs0, 0x18(a2)
       8: 6f72         	ld	t5, 0x118(sp)
       a: 6164         	ld	s1, 0xc0(a0)
       c: 6174         	ld	a3, 0xc0(a0)
       e: 2e00         	fld	fs0, 0x18(a2)
      10: 6865         	lui	a6, 0x19
      12: 665f 6172 656d       	<unknown>
      18: 2e00         	fld	fs0, 0x18(a2)
      1a: 74616473     	csrrsi	s0, 0x746, 0x2
      1e: 0061         	c.nop	0x18
      20: 622e         	ld	tp, 0xc8(sp)
      22: 2e007373     	csrrci	t1, 0x2e0, 0x0
      26: 326c         	fld	fa1, 0xe0(a2)
      28: 2e00         	fld	fs0, 0x18(a2)
      2a: 6d6d6f63     	bltu	s10, s6, 0x708 <.debug_loc+0x708>
      2e: 6e65         	lui	t3, 0x19
      30: 0074         	addi	a3, sp, 0xc
      32: 642e         	ld	s0, 0xc8(sp)
      34: 6265         	lui	tp, 0x19
      36: 6775         	lui	a4, 0x1d
      38: 6c5f 636f 2e00       	<unknown>
      3e: 6564         	ld	s1, 0xc8(a0)
      40: 7562         	ld	a0, 0x38(sp)
      42: 62615f67     	<unknown>
      46: 7262         	ld	tp, 0x38(sp)
      48: 7665         	lui	a2, 0xffff9
      4a: 2e00         	fld	fs0, 0x18(a2)
      4c: 6564         	ld	s1, 0xc8(a0)
      4e: 7562         	ld	a0, 0x38(sp)
      50: 6e695f67     	<unknown>
      54: 6f66         	ld	t5, 0x58(sp)
      56: 2e00         	fld	fs0, 0x18(a2)
      58: 6564         	ld	s1, 0xc8(a0)
      5a: 7562         	ld	a0, 0x38(sp)
      5c: 61725f67     	<unknown>
      60: 676e         	ld	a4, 0xd8(sp)
      62: 7365         	lui	t1, 0xffff9
      64: 2e00         	fld	fs0, 0x18(a2)
      66: 6564         	ld	s1, 0xc8(a0)
      68: 7562         	ld	a0, 0x38(sp)
      6a: 74735f67     	<unknown>
      6e: 0072         	c.slli	zero, 0x1c
      70: 642e         	ld	s0, 0xc8(sp)
      72: 6265         	lui	tp, 0x19
      74: 6775         	lui	a4, 0x1d
      76: 705f 6275 616e       	<unknown>
      7c: 656d         	lui	a0, 0x1b
      7e: 642e0073     	<unknown>
      82: 6265         	lui	tp, 0x19
      84: 6775         	lui	a4, 0x1d
      86: 705f 6275 7974       	<unknown>
      8c: 6570         	ld	a2, 0xc8(a0)
      8e: 722e0073     	<unknown>
      92: 7369         	lui	t1, 0xffffa
      94: 612e7663     	bgeu	t3, s2, 0x6a0 <.debug_loc+0x6a0>
      98: 7474         	ld	a3, 0xe8(s0)
      9a: 6972         	ld	s2, 0x118(sp)
      9c: 7562         	ld	a0, 0x38(sp)
      9e: 6574         	ld	a3, 0xc8(a0)
      a0: 642e0073     	<unknown>
      a4: 6265         	lui	tp, 0x19
      a6: 6775         	lui	a4, 0x1d
      a8: 6c5f 6e69 0065       	<unknown>
      ae: 732e         	ld	t1, 0xe8(sp)
      b0: 6d79         	lui	s10, 0x1e
      b2: 6174         	ld	a3, 0xc0(a0)
      b4: 0062         	c.slli	zero, 0x18
      b6: 732e         	ld	t1, 0xe8(sp)
      b8: 7368         	ld	a0, 0xe0(a4)
      ba: 7274         	ld	a3, 0xe0(a2)
      bc: 6174         	ld	a3, 0xc0(a0)
      be: 0062         	c.slli	zero, 0x18
      c0: 732e         	ld	t1, 0xe8(sp)
      c2: 7274         	ld	a3, 0xe0(a2)
      c4: 6174         	ld	a3, 0xc0(a0)
      c6: 0062         	c.slli	zero, 0x18

Disassembly of section .strtab:

0000000000000000 <.strtab>:
       0: 5400         	lw	s0, 0x28(s0)
       2: 4d56         	lw	s10, 0x54(sp)
       4: 6f4d         	lui	t5, 0x13
       6: 0064         	addi	s1, sp, 0xc
       8: 7824         	ld	s1, 0x70(s0)
       a: 6600         	ld	s0, 0x8(a2)
       c: 6f64         	ld	s1, 0xd8(a4)
       e: 7074         	ld	a3, 0xe0(s0)
      10: 6f72         	ld	t5, 0x118(sp)
      12: 7564         	ld	s1, 0xe8(a0)
      14: 635f7463     	bgeu	t5, s5, 0x63c <.debug_loc+0x63c>
      18: 75706d6f     	jal	s10, 0x6f6e <.debug_loc+0x6f6e>
      1c: 6574         	ld	a3, 0xc8(a0)
      1e: 005f 5f5f 7674       	<unknown>
      24: 5f6d         	li	t5, -0x5
      26: 5f746573     	csrrsi	a0, 0x5f7, 0x8
      2a: 6172         	ld	sp, 0x118(sp)
      2c: 7369         	lui	t1, 0xffffa
      2e: 6465         	lui	s0, 0x19
      30: 365f 5f00 745f       	<unknown>
      36: 6d76         	ld	s10, 0x158(sp)
      38: 735f 7465 725f       	<unknown>
      3e: 6961         	lui	s2, 0x18
      40: 5f646573     	csrrsi	a0, 0x5f6, 0x8
      44: 3231         	addiw	tp, tp, -0x14
      46: 2400         	fld	fs0, 0x8(s0)
      48: 0078         	addi	a4, sp, 0xc
      4a: 7824         	ld	s1, 0x70(s0)
      4c: 2400         	fld	fs0, 0x8(s0)
      4e: 0078         	addi	a4, sp, 0xc
      50: 6424         	ld	s1, 0x48(s0)
      52: 2400         	fld	fs0, 0x8(s0)
      54: 0064         	addi	s1, sp, 0xc
      56: 6424         	ld	s1, 0x48(s0)
      58: 2400         	fld	fs0, 0x8(s0)
      5a: 0064         	addi	s1, sp, 0xc
      5c: 6424         	ld	s1, 0x48(s0)
      5e: 2400         	fld	fs0, 0x8(s0)
      60: 0064         	addi	s1, sp, 0xc
      62: 6424         	ld	s1, 0x48(s0)
      64: 2400         	fld	fs0, 0x8(s0)
      66: 0064         	addi	s1, sp, 0xc
      68: 6424         	ld	s1, 0x48(s0)
      6a: 2400         	fld	fs0, 0x8(s0)
      6c: 0064         	addi	s1, sp, 0xc
      6e: 6424         	ld	s1, 0x48(s0)
      70: 2400         	fld	fs0, 0x8(s0)
      72: 0064         	addi	s1, sp, 0xc
      74: 6424         	ld	s1, 0x48(s0)
      76: 2400         	fld	fs0, 0x8(s0)
      78: 0064         	addi	s1, sp, 0xc
      7a: 6424         	ld	s1, 0x48(s0)
      7c: 2400         	fld	fs0, 0x8(s0)
      7e: 0064         	addi	s1, sp, 0xc
      80: 6424         	ld	s1, 0x48(s0)
      82: 2400         	fld	fs0, 0x8(s0)
      84: 0064         	addi	s1, sp, 0xc
      86: 6424         	ld	s1, 0x48(s0)
      88: 2400         	fld	fs0, 0x8(s0)
      8a: 0064         	addi	s1, sp, 0xc
      8c: 6424         	ld	s1, 0x48(s0)
      8e: 2400         	fld	fs0, 0x8(s0)
      90: 0064         	addi	s1, sp, 0xc
      92: 6424         	ld	s1, 0x48(s0)
      94: 2400         	fld	fs0, 0x8(s0)
      96: 0064         	addi	s1, sp, 0xc
      98: 6424         	ld	s1, 0x48(s0)
      9a: 2400         	fld	fs0, 0x8(s0)
      9c: 0064         	addi	s1, sp, 0xc
      9e: 6424         	ld	s1, 0x48(s0)
      a0: 2400         	fld	fs0, 0x8(s0)
      a2: 0064         	addi	s1, sp, 0xc
      a4: 6424         	ld	s1, 0x48(s0)
      a6: 2400         	fld	fs0, 0x8(s0)
      a8: 0064         	addi	s1, sp, 0xc
      aa: 6424         	ld	s1, 0x48(s0)
      ac: 2400         	fld	fs0, 0x8(s0)
      ae: 0064         	addi	s1, sp, 0xc
      b0: 6424         	ld	s1, 0x48(s0)
      b2: 2400         	fld	fs0, 0x8(s0)
      b4: 0064         	addi	s1, sp, 0xc
      b6: 6424         	ld	s1, 0x48(s0)
      b8: 2400         	fld	fs0, 0x8(s0)
      ba: 0064         	addi	s1, sp, 0xc
      bc: 6424         	ld	s1, 0x48(s0)
      be: 2400         	fld	fs0, 0x8(s0)
      c0: 0064         	addi	s1, sp, 0xc
      c2: 6424         	ld	s1, 0x48(s0)
      c4: 2400         	fld	fs0, 0x8(s0)
      c6: 0064         	addi	s1, sp, 0xc
      c8: 6424         	ld	s1, 0x48(s0)
      ca: 2400         	fld	fs0, 0x8(s0)
      cc: 0064         	addi	s1, sp, 0xc
      ce: 6424         	ld	s1, 0x48(s0)
      d0: 2400         	fld	fs0, 0x8(s0)
      d2: 0064         	addi	s1, sp, 0xc
      d4: 6424         	ld	s1, 0x48(s0)
      d6: 2400         	fld	fs0, 0x8(s0)
      d8: 0064         	addi	s1, sp, 0xc
      da: 6424         	ld	s1, 0x48(s0)
      dc: 2400         	fld	fs0, 0x8(s0)
      de: 0064         	addi	s1, sp, 0xc
      e0: 6424         	ld	s1, 0x48(s0)
      e2: 2400         	fld	fs0, 0x8(s0)
      e4: 0064         	addi	s1, sp, 0xc
      e6: 6424         	ld	s1, 0x48(s0)
      e8: 6600         	ld	s0, 0x8(a2)
      ea: 6f64         	ld	s1, 0xd8(a4)
      ec: 7074         	ld	a3, 0xe0(s0)
      ee: 6f72         	ld	t5, 0x118(sp)
      f0: 7564         	ld	s1, 0xe8(a0)
      f2: 6d5f7463     	bgeu	t5, s5, 0x7ba <.debug_loc+0x7ba>
      f6: 6961         	lui	s2, 0x18
      f8: 2e6e         	fld	ft8, 0xd8(sp)
      fa: 78240063     	beq	s0, sp, 0x87a <.debug_loc+0x87a>
      fe: 2400         	fld	fs0, 0x8(s0)
     100: 0078         	addi	a4, sp, 0xc
     102: 6424         	ld	s1, 0x48(s0)
     104: 6300         	ld	s0, 0x0(a4)
     106: 645f 7461 0061       	<unknown>
     10c: 70616873     	csrrsi	a6, 0x706, 0x2
     110: 5f65         	li	t5, -0x7
     112: 3436         	fld	fs0, 0x168(sp)
     114: 7300         	ld	s0, 0x20(a4)
     116: 6168         	ld	a0, 0xc0(a0)
     118: 6570         	ld	a2, 0xc8(a0)
     11a: 315f 6100 645f       	<unknown>
     120: 7461         	lui	s0, 0xffff8
     122: 0061         	c.nop	0x18
     124: 5f62         	lw	t5, 0x38(sp)
     126: 6164         	ld	s1, 0xc0(a0)
     128: 6174         	ld	a3, 0xc0(a0)
     12a: 2400         	fld	fs0, 0x8(s0)
     12c: 0064         	addi	s1, sp, 0xc
     12e: 6424         	ld	s1, 0x48(s0)
     130: 2400         	fld	fs0, 0x8(s0)
     132: 0078         	addi	a4, sp, 0xc
     134: 6572         	ld	a0, 0x118(sp)
     136: 5f746573     	csrrsi	a0, 0x5f7, 0x8
     13a: 6576         	ld	a0, 0x158(sp)
     13c: 726f7463     	bgeu	t5, t1, 0x864 <.debug_loc+0x864>
     140: 7400         	ld	s0, 0x28(s0)
     142: 6172         	ld	sp, 0x118(sp)
     144: 5f70         	lw	a2, 0x7c(a4)
     146: 6576         	ld	a0, 0x158(sp)
     148: 726f7463     	bgeu	t5, t1, 0x870 <.debug_loc+0x870>
     14c: 2400         	fld	fs0, 0x8(s0)
     14e: 0064         	addi	s1, sp, 0xc
     150: 7270         	ld	a2, 0xe0(a2)
     152: 6e69         	lui	t3, 0x1a
     154: 6674         	ld	a3, 0xc8(a2)
     156: 632e         	ld	t1, 0xc8(sp)
     158: 2400         	fld	fs0, 0x8(s0)
     15a: 0064         	addi	s1, sp, 0xc
     15c: 6424         	ld	s1, 0x48(s0)
     15e: 7300         	ld	s0, 0x20(a4)
     160: 7274         	ld	a3, 0xe0(a2)
     162: 6e69         	lui	t3, 0x1a
     164: 00632e67     	<unknown>
     168: 6424         	ld	s1, 0x48(s0)
     16a: 2400         	fld	fs0, 0x8(s0)
     16c: 0064         	addi	s1, sp, 0xc
     16e: 69726573     	csrrsi	a0, 0x697, 0x4
     172: 6c61         	lui	s8, 0x18
     174: 632e         	ld	t1, 0xc8(sp)
     176: 2400         	fld	fs0, 0x8(s0)
     178: 0064         	addi	s1, sp, 0xc
     17a: 6424         	ld	s1, 0x48(s0)
     17c: 7500         	ld	s0, 0x28(a0)
     17e: 6974         	ld	a3, 0xd0(a0)
     180: 2e6c         	fld	fa1, 0xd8(a2)
     182: 64240063     	beq	s0, sp, 0x7c2 <.debug_loc+0x7c2>
     186: 2400         	fld	fs0, 0x8(s0)
     188: 0064         	addi	s1, sp, 0xc
     18a: 6466         	ld	s0, 0x58(sp)
     18c: 7270746f     	jal	s0, 0x80b2 <.debug_loc+0x80b2>
     190: 6375646f     	jal	s0, 0x56fc6 <.debug_loc+0x56fc6>
     194: 2e74         	fld	fa3, 0xd8(a2)
     196: 78240063     	beq	s0, sp, 0x916 <.debug_loc+0x916>
     19a: 2400         	fld	fs0, 0x8(s0)
     19c: 0064         	addi	s1, sp, 0xc
     19e: 6424         	ld	s1, 0x48(s0)
     1a0: 5f00         	lw	s0, 0x38(a4)
     1a2: 745f 6d76 665f       	<unknown>
     1a8: 6966         	ld	s2, 0x58(sp)
     1aa: 665f 6f64 7074       	<unknown>
     1b0: 6f72         	ld	t5, 0x118(sp)
     1b2: 7564         	ld	s1, 0xe8(a0)
     1b4: 54007463     	bgeu	zero, zero, 0x6fc <.debug_loc+0x6fc>
     1b8: 4d56         	lw	s10, 0x54(sp)
     1ba: 4646         	lw	a2, 0x50(sp)
     1bc: 4549         	li	a0, 0x12
     1be: 7272         	ld	tp, 0x138(sp)
     1c0: 6553726f     	jal	tp, 0x38014 <.debug_loc+0x38014>
     1c4: 5274         	lw	a3, 0x64(a2)
     1c6: 6961         	lui	s2, 0x18
     1c8: 46646573     	csrrsi	a0, 0x466, 0x8
     1cc: 6f72         	ld	t5, 0x118(sp)
     1ce: 436d         	li	t1, 0x1b
     1d0: 50727453     	<unknown>
     1d4: 7261         	lui	tp, 0xffff8
     1d6: 7374         	ld	a3, 0xe0(a4)
     1d8: 6600         	ld	s0, 0x8(a2)
     1da: 6f64         	ld	s1, 0xd8(a4)
     1dc: 7074         	ld	a3, 0xe0(s0)
     1de: 765f 3233 0062       	<unknown>
     1e4: 616d         	addi	sp, sp, 0xf0
     1e6: 6e69         	lui	t3, 0x1a
     1e8: 5f00         	lw	s0, 0x38(a4)
     1ea: 72617473     	csrrci	s0, 0x726, 0x2
     1ee: 0074         	addi	a3, sp, 0xc
     1f0: 655f 636f 5f00       	<unknown>
     1f6: 6166         	ld	sp, 0x58(sp)
     1f8: 6c69         	lui	s8, 0x1a
     1fa: 6d00         	ld	s0, 0x18(a0)
     1fc: 7674         	ld	a3, 0xe8(a2)
     1fe: 6365         	lui	t1, 0x19
     200: 685f 6e61 6c64       	<unknown>
     206: 7265         	lui	tp, 0xffff9
     208: 7300         	ld	s0, 0x20(a4)
     20a: 7674         	ld	a3, 0xe8(a2)
     20c: 6365         	lui	t1, 0x19
     20e: 685f 6e61 6c64       	<unknown>
     214: 7265         	lui	tp, 0xffff9
     216: 7200         	ld	s0, 0x20(a2)
     218: 7476         	ld	s0, 0x178(sp)
     21a: 7365         	lui	t1, 0xffff9
     21c: 5f74         	lw	a3, 0x7c(a4)
     21e: 6e69         	lui	t3, 0x1a
     220: 7469         	lui	s0, 0xffffa
     222: 5f00         	lw	s0, 0x38(a4)
     224: 675f 6f6c 6162       	<unknown>
     22a: 5f6c         	lw	a1, 0x7c(a4)
     22c: 6f70         	ld	a2, 0xd8(a4)
     22e: 6e69         	lui	t3, 0x1a
     230: 6574         	ld	a3, 0xc8(a0)
     232: 2472         	fld	fs0, 0x118(sp)
     234: 6400         	ld	s0, 0x8(s0)
     236: 6172         	ld	sp, 0x118(sp)
     238: 5f6d         	li	t5, -0x5
     23a: 6e65         	lui	t3, 0x19
     23c: 5f64         	lw	s1, 0x7c(a4)
     23e: 6461         	lui	s0, 0x18
     240: 7264         	ld	s1, 0xe0(a2)
     242: 7365         	lui	t1, 0xffff9
     244: 65725f73     	csrrwi	t5, 0x657, 0x4
     248: 6f650067     	jr	0x6f6(a0)
     24c: 64615f63     	bge	sp, t1, 0x8aa <.debug_loc+0x8aa>
     250: 7264         	ld	s1, 0xe0(a2)
     252: 7365         	lui	t1, 0xffff9
     254: 65725f73     	csrrwi	t5, 0x657, 0x4
     258: 61660067     	jr	0x616(a2)
     25c: 755f656b     	<unknown>
     260: 7261         	lui	tp, 0xffff8
     262: 0074         	addi	a3, sp, 0xc
     264: 5f5f 7362 5f73       	<unknown>
     26a: 72617473     	csrrci	s0, 0x726, 0x2
     26e: 0074         	addi	a3, sp, 0xc
     270: 5f5f 7362 5f73       	<unknown>
     276: 6e65         	lui	t3, 0x19
     278: 0064         	addi	s1, sp, 0xc
     27a: 6974         	ld	a3, 0xd0(a0)
     27c: 656d         	lui	a0, 0x1b
     27e: 0072         	c.slli	zero, 0x1c
     280: 326c         	fld	fa1, 0xe0(a2)
     282: 615f 6c6c 636f       	<unknown>
     288: 625f 7361 0065       	<unknown>
     28e: 7264         	ld	s1, 0xe0(a2)
     290: 6d61         	lui	s10, 0x18
     292: 735f 6174 7472       	<unknown>
     298: 615f 6464 6572       	<unknown>
     29e: 725f7373     	csrrci	t1, 0x725, 0x1e
     2a2: 6765         	lui	a4, 0x19
     2a4: 6500         	ld	s0, 0x8(a0)
     2a6: 6576         	ld	a0, 0x158(sp)
     2a8: 746e         	ld	s0, 0xf8(sp)
     2aa: 745f 6972 6767       	<unknown>
     2b0: 7265         	lui	tp, 0xffff9
     2b2: 6800         	ld	s0, 0x10(s0)
     2b4: 6e635f77     	<unknown>
     2b8: 5f74         	lw	a3, 0x7c(a4)
     2ba: 6e65         	lui	t3, 0x19
     2bc: 5f           	<unknown>
     2bd: 6572         	ld	a0, 0x118(sp)
     2bf: 67           	<unknown>
     2c0: 00           	<unknown>
